Certificate:
    Data:
        Version: 3 (0x2)
        Serial Number: 16 (0x10)
        Signature Algorithm: md5WithRSAEncryption
        Issuer: C=BE, ST=Vlaams-Brabant, L=Leuven, O=AUSY, O=not used, OU=Demo CA project, CN=Project1CA
        Validity
            Not Before: May  2 12:18:41 2014 GMT
            Not After : May  2 12:18:41 2015 GMT
        Subject: C=BE, ST=Brussels, L=Brussels, O=OLAF, OU=D.4 AFIS, CN=testing8/emailAddress=user@organisation.com
        Subject Public Key Info:
            Public Key Algorithm: rsaEncryption
            RSA Public Key: (2048 bit)
                Modulus (2048 bit):
                    00:b2:a4:3f:88:35:7a:09:02:a0:06:5d:e3:a9:e0:
                    0e:a1:f6:2c:0c:44:71:aa:e8:5c:10:64:4b:3c:85:
                    c8:f1:12:56:f5:72:27:e1:aa:79:af:3d:26:46:60:
                    95:b1:88:83:57:46:e5:8b:f4:07:d7:da:5f:af:59:
                    2c:3c:01:a2:67:c1:d5:35:ed:0d:6b:10:9f:c4:54:
                    d2:8d:bf:40:53:61:e4:f6:cb:38:b4:d1:32:2f:b1:
                    31:d3:f9:6f:57:a4:0b:a1:39:90:14:32:40:5d:b4:
                    92:f9:a9:0e:1f:c5:1e:44:55:0d:24:5b:2b:16:81:
                    a6:77:ff:b2:1c:4f:5e:ad:0e:38:c5:bb:80:69:9a:
                    3d:54:58:04:95:b5:c0:28:c7:59:55:a0:7d:ab:34:
                    20:61:5f:08:29:16:5f:ea:bd:ca:85:92:01:85:a8:
                    ad:50:2e:92:af:6a:19:0b:be:e6:42:4f:6a:93:03:
                    95:64:db:df:0a:77:a3:40:9a:01:fd:0d:26:28:1a:
                    42:2d:e1:1a:d7:e5:36:66:4c:2a:be:b2:30:45:4b:
                    20:d4:f2:bc:34:86:52:af:ad:90:01:3f:ec:61:59:
                    5c:79:8a:87:48:13:06:fa:28:75:e1:a5:3f:c5:b5:
                    a8:73:4b:70:af:64:4d:4e:d4:dd:bb:7d:5f:b8:f8:
                    be:69
                Exponent: 65537 (0x10001)
        X509v3 extensions:
            X509v3 Basic Constraints: 
                CA:FALSE
            Netscape Cert Type: 
                SSL Client, S/MIME
            Netscape Comment: 
                OpenSSL Generated Client Certificate
            X509v3 Subject Key Identifier: 
                B9:A9:E7:07:3E:CD:A8:9D:DE:19:6D:A9:03:84:43:26:5F:F4:90:FC
            X509v3 Authority Key Identifier: 
                keyid:CE:9B:8C:9B:C8:59:66:42:49:1A:B4:F8:35:1B:9D:7F:D4:BC:90:75
                DirName:/C=BE/ST=Vlaams-Brabant/L=Leuven/O=AUSY/O=not used/OU=Demo CA project/CN=RootCA
                serial:01

    Signature Algorithm: md5WithRSAEncryption
        5b:66:0a:ce:ec:87:cb:31:71:72:20:c0:21:cc:7c:42:6c:b1:
        d2:86:aa:70:8a:92:de:e0:98:b5:be:aa:da:42:a5:ab:2d:b3:
        51:b9:de:04:91:ed:89:1b:67:ee:fd:bc:57:74:94:e4:78:87:
        61:53:79:c0:31:54:c6:3c:61:dc:4c:5e:78:03:4d:e4:6a:ad:
        93:0a:29:45:54:90:df:d9:ad:a1:cc:cb:5c:34:6c:fb:ce:f1:
        86:97:c8:39:38:79:fd:3e:a2:e8:7c:69:3a:4e:20:c0:8d:bd:
        07:e1:af:44:c7:3f:4d:27:b2:1e:95:c7:b4:14:b7:50:a3:ff:
        e0:d5:23:58:f5:89:f9:1e:9e:65:3d:b4:9a:d1:e3:58:99:d6:
        08:b0:ea:18:72:83:1f:57:95:4a:41:f1:5d:32:ee:51:a4:36:
        7c:19:50:58:27:ad:1c:ab:a3:f6:dd:67:96:0d:e7:07:fd:10:
        a6:75:2d:ac:45:2f:03:29:7d:b5:8f:e3:e3:53:19:66:63:fc:
        39:83:7e:ef:bb:cd:e9:7c:0a:94:9d:db:a7:23:52:64:f8:7c:
        27:b7:ab:d1:33:63:3c:3a:6b:e1:b9:ff:d4:2a:b7:39:01:1e:
        c0:a8:2a:4f:4e:f8:0c:93:15:95:a2:12:a2:30:52:c4:e9:d8:
        89:05:3c:70
-----BEGIN CERTIFICATE-----
MIIEvzCCA6egAwIBAgIBEDANBgkqhkiG9w0BAQQFADCBiDELMAkGA1UEBhMCQkUx
FzAVBgNVBAgTDlZsYWFtcy1CcmFiYW50MQ8wDQYDVQQHEwZMZXV2ZW4xDTALBgNV
BAoTBEFVU1kxETAPBgNVBAoTCG5vdCB1c2VkMRgwFgYDVQQLEw9EZW1vIENBIHBy
b2plY3QxEzARBgNVBAMTClByb2plY3QxQ0EwHhcNMTQwNTAyMTIxODQxWhcNMTUw
NTAyMTIxODQxWjCBjjELMAkGA1UEBhMCQkUxETAPBgNVBAgTCEJydXNzZWxzMREw
DwYDVQQHEwhCcnVzc2VsczENMAsGA1UEChMET0xBRjERMA8GA1UECxMIRC40IEFG
SVMxETAPBgNVBAMTCHRlc3Rpbmc4MSQwIgYJKoZIhvcNAQkBFhV1c2VyQG9yZ2Fu
aXNhdGlvbi5jb20wggEiMA0GCSqGSIb3DQEBAQUAA4IBDwAwggEKAoIBAQCypD+I
NXoJAqAGXeOp4A6h9iwMRHGq6FwQZEs8hcjxElb1cifhqnmvPSZGYJWxiINXRuWL
9AfX2l+vWSw8AaJnwdU17Q1rEJ/EVNKNv0BTYeT2yzi00TIvsTHT+W9XpAuhOZAU
MkBdtJL5qQ4fxR5EVQ0kWysWgaZ3/7IcT16tDjjFu4Bpmj1UWASVtcAox1lVoH2r
NCBhXwgpFl/qvcqFkgGFqK1QLpKvahkLvuZCT2qTA5Vk298Kd6NAmgH9DSYoGkIt
4RrX5TZmTCq+sjBFSyDU8rw0hlKvrZABP+xhWVx5iodIEwb6KHXhpT/FtahzS3Cv
ZE1O1N27fV+4+L5pAgMBAAGjggEqMIIBJjAJBgNVHRMEAjAAMBEGCWCGSAGG+EIB
AQQEAwIFoDAzBglghkgBhvhCAQ0EJhYkT3BlblNTTCBHZW5lcmF0ZWQgQ2xpZW50
IENlcnRpZmljYXRlMB0GA1UdDgQWBBS5qecHPs2ond4ZbakDhEMmX/SQ/DCBsQYD
VR0jBIGpMIGmgBTOm4ybyFlmQkkatPg1G51/1LyQdaGBiqSBhzCBhDELMAkGA1UE
BhMCQkUxFzAVBgNVBAgTDlZsYWFtcy1CcmFiYW50MQ8wDQYDVQQHEwZMZXV2ZW4x
DTALBgNVBAoTBEFVU1kxETAPBgNVBAoTCG5vdCB1c2VkMRgwFgYDVQQLEw9EZW1v
IENBIHByb2plY3QxDzANBgNVBAMTBlJvb3RDQYIBATANBgkqhkiG9w0BAQQFAAOC
AQEAW2YKzuyHyzFxciDAIcx8Qmyx0oaqcIqS3uCYtb6q2kKlqy2zUbneBJHtiRtn
7v28V3SU5HiHYVN5wDFUxjxh3ExeeANN5GqtkwopRVSQ39mtoczLXDRs+87xhpfI
OTh5/T6i6HxpOk4gwI29B+GvRMc/TSeyHpXHtBS3UKP/4NUjWPWJ+R6eZT20mtHj
WJnWCLDqGHKDH1eVSkHxXTLuUaQ2fBlQWCetHKuj9t1nlg3nB/0QpnUtrEUvAyl9
tY/j41MZZmP8OYN+77vN6XwKlJ3bpyNSZPh8J7er0TNjPDpr4bn/1Cq3OQEewKgq
T074DJMVlaISojBSxOnYiQU8cA==
-----END CERTIFICATE-----
