Certificate:
    Data:
        Version: 3 (0x2)
        Serial Number: 1 (0x1)
        Signature Algorithm: md5WithRSAEncryption
        Issuer: C=BE, ST=Vlaams-Brabant, L=Leuven, O=AUSY, O=not used, OU=Demo CA project, CN=RootCA
        Validity
            Not Before: Feb 27 13:04:26 2014 GMT
            Not After : Feb 25 13:04:26 2024 GMT
        Subject: C=BE, ST=Vlaams-Brabant, L=Leuven, O=AUSY, O=not used, OU=Demo CA project, CN=Project1CA
        Subject Public Key Info:
            Public Key Algorithm: rsaEncryption
            RSA Public Key: (2048 bit)
                Modulus (2048 bit):
                    00:c1:29:ae:27:50:6c:b8:d0:0a:95:4d:a9:cb:7c:
                    05:28:8d:00:6d:af:1c:1c:26:6f:52:ec:2d:da:30:
                    f5:37:a3:67:76:48:9c:57:82:5a:71:58:fa:2a:5b:
                    4d:cd:a7:43:9e:7b:78:a4:41:2e:d1:7c:76:91:bd:
                    1a:35:94:1a:6d:6d:51:0c:aa:d7:32:77:2f:11:95:
                    1a:df:a8:ae:a7:d1:f4:48:4d:3a:b6:99:97:7e:e6:
                    c4:94:4a:7a:49:98:f9:e6:15:a5:e5:8d:6a:01:c0:
                    f6:20:8d:18:8c:da:89:10:4b:a9:91:1a:bc:ef:a5:
                    a5:a3:11:5b:5e:82:83:21:9b:25:d3:31:fc:91:3b:
                    0d:f2:b6:2f:8e:28:6c:9a:07:78:f4:86:89:2c:77:
                    45:c4:b0:98:2c:51:b5:a2:03:c2:1d:1f:91:ed:36:
                    be:d8:9b:12:94:e4:ee:1a:e9:b6:2e:22:ce:3c:f6:
                    89:69:72:7b:9d:97:ae:ea:98:42:68:99:50:f6:bc:
                    99:92:d0:34:76:f7:f0:c1:cc:97:cd:b2:0e:5a:b1:
                    51:59:67:2f:cc:fc:b8:ec:78:83:83:37:af:a4:ed:
                    a2:9f:a3:13:9b:82:0b:f0:d0:bd:39:23:95:49:2f:
                    6a:e0:a9:b9:46:59:07:74:b5:1a:89:44:79:a8:a8:
                    2d:25
                Exponent: 65537 (0x10001)
        X509v3 extensions:
            X509v3 Subject Key Identifier: 
                CE:9B:8C:9B:C8:59:66:42:49:1A:B4:F8:35:1B:9D:7F:D4:BC:90:75
            X509v3 Authority Key Identifier: 
                keyid:E8:0E:D6:77:13:DB:3E:68:89:67:85:DA:4B:72:9A:67:FF:FE:D5:83
                DirName:/C=BE/ST=Vlaams-Brabant/L=Leuven/O=AUSY/O=not used/OU=Demo CA project/CN=RootCA
                serial:E2:E4:8B:E0:DB:AE:C0:84

            X509v3 Basic Constraints: 
                CA:TRUE
    Signature Algorithm: md5WithRSAEncryption
        75:89:e2:a0:77:47:cd:ff:2c:07:77:33:12:23:c7:7c:88:83:
        68:aa:ae:98:0e:05:f7:97:d1:ce:b9:38:9a:a7:34:1d:16:79:
        8f:ae:b3:10:ca:f8:5b:8f:3b:61:7d:ee:b2:eb:90:ec:df:2f:
        f7:c8:ff:a7:75:3d:23:c4:a8:e7:07:df:57:6a:9d:22:d6:0c:
        3d:7b:e2:f7:67:ac:aa:d5:7a:d5:09:15:c6:e6:4b:81:40:a4:
        49:64:6b:79:4b:e4:46:90:52:26:a9:bd:ad:a4:03:43:48:90:
        63:82:e6:9a:f2:73:e5:eb:06:e8:94:c7:bf:4c:d7:92:db:5f:
        60:ce:a3:e4:26:ff:29:35:34:d0:b0:12:56:55:fb:fd:c7:e1:
        d7:c2:a8:1d:c9:79:98:05:a9:86:9f:aa:cb:52:93:50:24:60:
        9e:e3:56:e0:15:50:6f:2f:e6:2d:6c:5d:7a:24:8b:d6:64:cd:
        7b:6d:b9:f4:c0:37:ff:06:1b:46:0a:55:e5:68:72:f1:7e:31:
        ff:00:d5:44:0c:50:13:67:2f:27:c8:0e:d8:9d:0f:21:6b:5a:
        d3:7f:1a:3b:63:12:8f:cd:b5:cc:01:f6:6e:75:16:23:b0:46:
        26:f5:5c:43:18:d0:b7:2a:1c:d9:50:55:9d:78:e5:81:bd:11:
        79:84:44:e7
-----BEGIN CERTIFICATE-----
MIIEdjCCA16gAwIBAgIBATANBgkqhkiG9w0BAQQFADCBhDELMAkGA1UEBhMCQkUx
FzAVBgNVBAgTDlZsYWFtcy1CcmFiYW50MQ8wDQYDVQQHEwZMZXV2ZW4xDTALBgNV
BAoTBEFVU1kxETAPBgNVBAoTCG5vdCB1c2VkMRgwFgYDVQQLEw9EZW1vIENBIHBy
b2plY3QxDzANBgNVBAMTBlJvb3RDQTAeFw0xNDAyMjcxMzA0MjZaFw0yNDAyMjUx
MzA0MjZaMIGIMQswCQYDVQQGEwJCRTEXMBUGA1UECBMOVmxhYW1zLUJyYWJhbnQx
DzANBgNVBAcTBkxldXZlbjENMAsGA1UEChMEQVVTWTERMA8GA1UEChMIbm90IHVz
ZWQxGDAWBgNVBAsTD0RlbW8gQ0EgcHJvamVjdDETMBEGA1UEAxMKUHJvamVjdDFD
QTCCASIwDQYJKoZIhvcNAQEBBQADggEPADCCAQoCggEBAMEpridQbLjQCpVNqct8
BSiNAG2vHBwmb1LsLdow9TejZ3ZInFeCWnFY+ipbTc2nQ557eKRBLtF8dpG9GjWU
Gm1tUQyq1zJ3LxGVGt+orqfR9EhNOraZl37mxJRKekmY+eYVpeWNagHA9iCNGIza
iRBLqZEavO+lpaMRW16CgyGbJdMx/JE7DfK2L44obJoHePSGiSx3RcSwmCxRtaID
wh0fke02vtibEpTk7hrpti4izjz2iWlye52XruqYQmiZUPa8mZLQNHb38MHMl82y
DlqxUVlnL8z8uOx4g4M3r6Ttop+jE5uCC/DQvTkjlUkvauCpuUZZB3S1GolEeaio
LSUCAwEAAaOB7DCB6TAdBgNVHQ4EFgQUzpuMm8hZZkJJGrT4NRudf9S8kHUwgbkG
A1UdIwSBsTCBroAU6A7WdxPbPmiJZ4XaS3KaZ//+1YOhgYqkgYcwgYQxCzAJBgNV
BAYTAkJFMRcwFQYDVQQIEw5WbGFhbXMtQnJhYmFudDEPMA0GA1UEBxMGTGV1dmVu
MQ0wCwYDVQQKEwRBVVNZMREwDwYDVQQKEwhub3QgdXNlZDEYMBYGA1UECxMPRGVt
byBDQSBwcm9qZWN0MQ8wDQYDVQQDEwZSb290Q0GCCQDi5Ivg267AhDAMBgNVHRME
BTADAQH/MA0GCSqGSIb3DQEBBAUAA4IBAQB1ieKgd0fN/ywHdzMSI8d8iINoqq6Y
DgX3l9HOuTiapzQdFnmPrrMQyvhbjzthfe6y65Ds3y/3yP+ndT0jxKjnB99Xap0i
1gw9e+L3Z6yq1XrVCRXG5kuBQKRJZGt5S+RGkFImqb2tpANDSJBjguaa8nPl6wbo
lMe/TNeS219gzqPkJv8pNTTQsBJWVfv9x+HXwqgdyXmYBamGn6rLUpNQJGCe41bg
FVBvL+YtbF16JIvWZM17bbn0wDf/BhtGClXlaHLxfjH/ANVEDFATZy8nyA7YnQ8h
a1rTfxo7YxKPzbXMAfZudRYjsEYm9VxDGNC3KhzZUFWdeOWBvRF5hETn
-----END CERTIFICATE-----
