Certificate:
    Data:
        Version: 3 (0x2)
        Serial Number: 6 (0x6)
        Signature Algorithm: md5WithRSAEncryption
        Issuer: C=BE, ST=Vlaams-Brabant, L=Leuven, O=AUSY, O=not used, OU=Demo CA project, CN=Project1CA
        Validity
            Not Before: May  2 09:23:31 2014 GMT
            Not After : May  2 09:23:31 2015 GMT
        Subject: C=BE, ST=Brussels, L=Brussels, O=OLAF, OU=D.4 AFIS, CN=test_cert/emailAddress=user@organisation.com
        Subject Public Key Info:
            Public Key Algorithm: rsaEncryption
            RSA Public Key: (2048 bit)
                Modulus (2048 bit):
                    00:ba:6e:da:6b:87:9f:f3:66:5f:d0:ae:f0:e6:89:
                    43:d2:b3:0a:45:db:45:ed:b7:34:f7:a3:d0:27:06:
                    f7:2a:03:04:27:97:95:64:8b:ab:29:57:49:a1:c3:
                    ec:92:2d:c4:73:e0:9a:59:9f:26:d0:74:30:26:98:
                    b6:61:20:94:cf:72:42:70:2e:73:52:9b:89:2b:e7:
                    49:05:2d:0f:e3:a4:ac:8d:ab:50:22:d6:0b:ac:5a:
                    2c:bd:55:1d:6f:31:3e:b3:59:66:c0:49:52:09:ed:
                    77:ec:24:f6:a4:06:e0:66:bf:e8:3e:2d:8c:22:d2:
                    b8:9c:09:a2:f5:8b:b9:88:9a:45:72:59:78:9a:53:
                    70:ad:3f:7c:71:99:15:da:72:16:2b:ea:0d:f5:f8:
                    77:57:6f:86:15:ec:44:e6:cc:86:06:2e:54:30:ef:
                    49:fe:2f:ee:ad:30:97:a8:4a:df:64:26:78:2d:f4:
                    a5:e7:18:d0:35:cf:9b:44:67:3d:04:22:4b:10:96:
                    77:f4:38:99:54:0e:79:9e:a1:23:ef:6f:92:15:91:
                    bb:32:cf:9e:42:e3:88:a1:a8:89:0c:d4:47:4f:b6:
                    14:e8:3d:f2:ef:90:30:dc:2b:d3:e3:47:b0:fe:1e:
                    fa:09:10:60:d3:1f:d1:f3:6a:70:e8:54:61:c5:27:
                    16:23
                Exponent: 65537 (0x10001)
        X509v3 extensions:
            X509v3 Basic Constraints: 
                CA:FALSE
            Netscape Cert Type: 
                SSL Client, S/MIME
            Netscape Comment: 
                OpenSSL Generated Client Certificate
            X509v3 Subject Key Identifier: 
                ED:59:30:EB:89:CE:5D:82:68:29:C1:AB:66:58:0C:E9:9D:13:A9:DE
            X509v3 Authority Key Identifier: 
                keyid:CE:9B:8C:9B:C8:59:66:42:49:1A:B4:F8:35:1B:9D:7F:D4:BC:90:75
                DirName:/C=BE/ST=Vlaams-Brabant/L=Leuven/O=AUSY/O=not used/OU=Demo CA project/CN=RootCA
                serial:01

    Signature Algorithm: md5WithRSAEncryption
        95:52:b4:80:d0:20:0a:31:04:7f:24:96:63:12:90:2d:e5:65:
        d8:88:69:cb:5b:cc:90:ee:a5:6b:b4:a7:22:f0:66:be:56:ff:
        49:b9:0e:43:29:2c:05:07:ca:b5:e0:34:34:1f:f9:ff:e5:5d:
        3e:2c:50:cc:e8:ce:25:bc:0f:ca:cd:56:46:48:dc:54:aa:8c:
        1d:1d:7c:09:7e:23:9c:90:44:d3:f8:db:92:5e:dc:34:18:a5:
        f2:cd:91:4a:88:45:0f:b5:1c:aa:0d:0f:9e:40:da:47:5f:b3:
        75:df:28:2e:d1:92:75:8f:6e:32:c3:35:ca:31:7b:52:39:26:
        52:22:07:30:d0:f4:e1:4c:d4:7b:fd:62:66:77:11:19:f5:24:
        dd:27:97:6a:e6:5a:dd:2e:34:83:86:61:80:56:5f:36:6c:4d:
        cd:18:08:87:19:fa:bc:da:14:d9:1e:49:91:e9:18:2d:3b:50:
        76:dd:58:14:6a:9a:db:2f:cf:35:4c:e4:55:35:7f:fa:76:cf:
        3e:30:0f:66:7d:09:a9:a0:e7:b0:79:c4:dc:f3:ce:c4:f5:2b:
        41:93:e0:4c:16:ba:2a:0b:ee:cc:8c:6a:5c:67:f4:8a:14:ad:
        23:16:84:42:49:0e:0e:4c:2e:4d:ae:83:05:01:ab:e6:96:e5:
        93:63:d7:3a
-----BEGIN CERTIFICATE-----
MIIEwDCCA6igAwIBAgIBBjANBgkqhkiG9w0BAQQFADCBiDELMAkGA1UEBhMCQkUx
FzAVBgNVBAgTDlZsYWFtcy1CcmFiYW50MQ8wDQYDVQQHEwZMZXV2ZW4xDTALBgNV
BAoTBEFVU1kxETAPBgNVBAoTCG5vdCB1c2VkMRgwFgYDVQQLEw9EZW1vIENBIHBy
b2plY3QxEzARBgNVBAMTClByb2plY3QxQ0EwHhcNMTQwNTAyMDkyMzMxWhcNMTUw
NTAyMDkyMzMxWjCBjzELMAkGA1UEBhMCQkUxETAPBgNVBAgTCEJydXNzZWxzMREw
DwYDVQQHEwhCcnVzc2VsczENMAsGA1UEChMET0xBRjERMA8GA1UECxMIRC40IEFG
SVMxEjAQBgNVBAMUCXRlc3RfY2VydDEkMCIGCSqGSIb3DQEJARYVdXNlckBvcmdh
bmlzYXRpb24uY29tMIIBIjANBgkqhkiG9w0BAQEFAAOCAQ8AMIIBCgKCAQEAum7a
a4ef82Zf0K7w5olD0rMKRdtF7bc096PQJwb3KgMEJ5eVZIurKVdJocPski3Ec+Ca
WZ8m0HQwJpi2YSCUz3JCcC5zUpuJK+dJBS0P46SsjatQItYLrFosvVUdbzE+s1lm
wElSCe137CT2pAbgZr/oPi2MItK4nAmi9Yu5iJpFcll4mlNwrT98cZkV2nIWK+oN
9fh3V2+GFexE5syGBi5UMO9J/i/urTCXqErfZCZ4LfSl5xjQNc+bRGc9BCJLEJZ3
9DiZVA55nqEj72+SFZG7Ms+eQuOIoaiJDNRHT7YU6D3y75Aw3CvT40ew/h76CRBg
0x/R82pw6FRhxScWIwIDAQABo4IBKjCCASYwCQYDVR0TBAIwADARBglghkgBhvhC
AQEEBAMCBaAwMwYJYIZIAYb4QgENBCYWJE9wZW5TU0wgR2VuZXJhdGVkIENsaWVu
dCBDZXJ0aWZpY2F0ZTAdBgNVHQ4EFgQU7Vkw64nOXYJoKcGrZlgM6Z0Tqd4wgbEG
A1UdIwSBqTCBpoAUzpuMm8hZZkJJGrT4NRudf9S8kHWhgYqkgYcwgYQxCzAJBgNV
BAYTAkJFMRcwFQYDVQQIEw5WbGFhbXMtQnJhYmFudDEPMA0GA1UEBxMGTGV1dmVu
MQ0wCwYDVQQKEwRBVVNZMREwDwYDVQQKEwhub3QgdXNlZDEYMBYGA1UECxMPRGVt
byBDQSBwcm9qZWN0MQ8wDQYDVQQDEwZSb290Q0GCAQEwDQYJKoZIhvcNAQEEBQAD
ggEBAJVStIDQIAoxBH8klmMSkC3lZdiIactbzJDupWu0pyLwZr5W/0m5DkMpLAUH
yrXgNDQf+f/lXT4sUMzoziW8D8rNVkZI3FSqjB0dfAl+I5yQRNP425Je3DQYpfLN
kUqIRQ+1HKoND55A2kdfs3XfKC7RknWPbjLDNcoxe1I5JlIiBzDQ9OFM1Hv9YmZ3
ERn1JN0nl2rmWt0uNIOGYYBWXzZsTc0YCIcZ+rzaFNkeSZHpGC07UHbdWBRqmtsv
zzVM5FU1f/p2zz4wD2Z9Camg57B5xNzzzsT1K0GT4EwWuioL7syMalxn9IoUrSMW
hEJJDg5MLk2ugwUBq+aW5ZNj1zo=
-----END CERTIFICATE-----
