Certificate:
    Data:
        Version: 3 (0x2)
        Serial Number: 21 (0x15)
        Signature Algorithm: md5WithRSAEncryption
        Issuer: C=BE, ST=Vlaams-Brabant, L=Leuven, O=AUSY, O=not used, OU=Demo CA project, CN=Project1CA
        Validity
            Not Before: May  2 13:13:46 2014 GMT
            Not After : May  2 13:13:46 2015 GMT
        Subject: C=BE, ST=Brussels, L=Brussels, O=OLAF, OU=D.4 AFIS, CN=Testing23/emailAddress=user@organisation.com
        Subject Public Key Info:
            Public Key Algorithm: rsaEncryption
            RSA Public Key: (2048 bit)
                Modulus (2048 bit):
                    00:ba:10:fb:02:fc:0c:c3:be:2f:cd:0e:d8:04:a6:
                    5f:ef:1f:9e:1e:b6:06:53:af:3e:91:7a:69:d4:95:
                    e9:75:ef:d9:78:80:36:ce:24:5e:bb:6a:70:22:66:
                    e7:51:77:90:8e:af:48:e6:ee:6e:04:66:ef:70:e3:
                    99:a2:65:79:07:47:84:3b:1c:89:bb:47:38:54:d6:
                    46:67:76:42:b6:37:56:42:91:c2:3a:09:36:e3:2c:
                    86:6b:84:02:a6:ac:5d:f0:e0:1d:c8:54:6d:d7:8c:
                    b2:15:68:f8:f2:4f:f4:8f:6c:7b:09:27:9f:69:7b:
                    cc:4b:d2:7a:8b:0d:30:d3:96:46:98:c8:31:5c:26:
                    48:23:a4:cb:a5:e6:60:a7:19:bf:17:03:6d:2b:e6:
                    be:3d:4f:2c:b2:a5:10:4f:f5:08:54:dd:ab:4e:7d:
                    56:df:72:ef:33:15:02:2b:3f:6e:e6:61:2f:0f:7d:
                    f0:36:9a:03:71:fc:ee:6d:8b:05:9f:78:75:89:c0:
                    8f:37:31:a9:0a:56:02:89:8e:e8:79:2c:98:cc:18:
                    22:f9:50:65:7d:30:db:20:c0:10:e7:28:78:07:53:
                    d8:51:1a:63:65:5a:2b:0a:89:6c:47:ad:c1:28:44:
                    65:6f:bd:1b:2c:a6:07:53:87:6f:a9:5f:75:3e:c3:
                    5b:ad
                Exponent: 65537 (0x10001)
        X509v3 extensions:
            X509v3 Basic Constraints: 
                CA:FALSE
            Netscape Cert Type: 
                SSL Client, S/MIME
            Netscape Comment: 
                OpenSSL Generated Client Certificate
            X509v3 Subject Key Identifier: 
                F8:C8:1B:51:1E:8D:EA:BA:4A:3A:B9:0F:87:DE:9E:47:86:78:DD:AB
            X509v3 Authority Key Identifier: 
                keyid:CE:9B:8C:9B:C8:59:66:42:49:1A:B4:F8:35:1B:9D:7F:D4:BC:90:75
                DirName:/C=BE/ST=Vlaams-Brabant/L=Leuven/O=AUSY/O=not used/OU=Demo CA project/CN=RootCA
                serial:01

    Signature Algorithm: md5WithRSAEncryption
        0f:70:2f:29:a2:5e:e0:13:12:69:8b:75:70:8a:92:2f:39:a8:
        46:0c:94:de:02:ac:07:88:32:43:df:82:cb:9d:47:92:c6:72:
        f2:02:92:f8:98:af:6d:3f:0b:44:96:73:63:99:f3:9c:51:db:
        8a:36:03:e6:53:ca:88:b5:17:67:75:22:b1:10:9d:3f:58:9b:
        e0:79:2d:04:35:27:21:55:31:ba:e2:8f:ed:68:bc:a1:5c:81:
        b1:1f:fd:fe:7e:f8:ff:42:99:91:fc:43:6a:7c:cc:69:f8:51:
        f6:5f:37:7c:a3:78:33:40:77:d8:47:d8:7c:00:fd:44:09:d6:
        f8:42:49:5e:04:a0:20:22:06:b9:bc:94:03:15:1f:91:d0:4d:
        18:fc:18:38:bf:48:a2:60:a7:e9:c3:43:06:2d:63:02:15:ad:
        ad:c7:ad:6a:bc:74:60:6b:07:91:f8:ab:a4:08:2f:ef:2f:df:
        76:bb:86:47:e9:29:ac:30:f9:fe:8b:5c:74:79:00:85:38:b6:
        bd:95:13:b3:83:49:02:ed:4f:df:5a:e1:7a:49:48:fa:f3:9c:
        f2:95:2b:a1:53:3a:4f:d8:24:eb:fe:09:2c:87:d9:25:05:05:
        f9:90:ed:bd:34:11:4a:64:99:cb:dc:a8:8c:5f:79:f9:71:e0:
        b1:f1:3e:4a
-----BEGIN CERTIFICATE-----
MIIEwDCCA6igAwIBAgIBFTANBgkqhkiG9w0BAQQFADCBiDELMAkGA1UEBhMCQkUx
FzAVBgNVBAgTDlZsYWFtcy1CcmFiYW50MQ8wDQYDVQQHEwZMZXV2ZW4xDTALBgNV
BAoTBEFVU1kxETAPBgNVBAoTCG5vdCB1c2VkMRgwFgYDVQQLEw9EZW1vIENBIHBy
b2plY3QxEzARBgNVBAMTClByb2plY3QxQ0EwHhcNMTQwNTAyMTMxMzQ2WhcNMTUw
NTAyMTMxMzQ2WjCBjzELMAkGA1UEBhMCQkUxETAPBgNVBAgTCEJydXNzZWxzMREw
DwYDVQQHEwhCcnVzc2VsczENMAsGA1UEChMET0xBRjERMA8GA1UECxMIRC40IEFG
SVMxEjAQBgNVBAMTCVRlc3RpbmcyMzEkMCIGCSqGSIb3DQEJARYVdXNlckBvcmdh
bmlzYXRpb24uY29tMIIBIjANBgkqhkiG9w0BAQEFAAOCAQ8AMIIBCgKCAQEAuhD7
AvwMw74vzQ7YBKZf7x+eHrYGU68+kXpp1JXpde/ZeIA2ziReu2pwImbnUXeQjq9I
5u5uBGbvcOOZomV5B0eEOxyJu0c4VNZGZ3ZCtjdWQpHCOgk24yyGa4QCpqxd8OAd
yFRt14yyFWj48k/0j2x7CSefaXvMS9J6iw0w05ZGmMgxXCZII6TLpeZgpxm/FwNt
K+a+PU8ssqUQT/UIVN2rTn1W33LvMxUCKz9u5mEvD33wNpoDcfzubYsFn3h1icCP
NzGpClYCiY7oeSyYzBgi+VBlfTDbIMAQ5yh4B1PYURpjZVorColsR63BKERlb70b
LKYHU4dvqV91PsNbrQIDAQABo4IBKjCCASYwCQYDVR0TBAIwADARBglghkgBhvhC
AQEEBAMCBaAwMwYJYIZIAYb4QgENBCYWJE9wZW5TU0wgR2VuZXJhdGVkIENsaWVu
dCBDZXJ0aWZpY2F0ZTAdBgNVHQ4EFgQU+MgbUR6N6rpKOrkPh96eR4Z43aswgbEG
A1UdIwSBqTCBpoAUzpuMm8hZZkJJGrT4NRudf9S8kHWhgYqkgYcwgYQxCzAJBgNV
BAYTAkJFMRcwFQYDVQQIEw5WbGFhbXMtQnJhYmFudDEPMA0GA1UEBxMGTGV1dmVu
MQ0wCwYDVQQKEwRBVVNZMREwDwYDVQQKEwhub3QgdXNlZDEYMBYGA1UECxMPRGVt
byBDQSBwcm9qZWN0MQ8wDQYDVQQDEwZSb290Q0GCAQEwDQYJKoZIhvcNAQEEBQAD
ggEBAA9wLymiXuATEmmLdXCKki85qEYMlN4CrAeIMkPfgsudR5LGcvICkviYr20/
C0SWc2OZ85xR24o2A+ZTyoi1F2d1IrEQnT9Ym+B5LQQ1JyFVMbrij+1ovKFcgbEf
/f5++P9CmZH8Q2p8zGn4UfZfN3yjeDNAd9hH2HwA/UQJ1vhCSV4EoCAiBrm8lAMV
H5HQTRj8GDi/SKJgp+nDQwYtYwIVra3HrWq8dGBrB5H4q6QIL+8v33a7hkfpKaww
+f6LXHR5AIU4tr2VE7ODSQLtT99a4XpJSPrznPKVK6FTOk/YJOv+CSyH2SUFBfmQ
7b00EUpkmcvcqIxfeflx4LHxPko=
-----END CERTIFICATE-----
