Certificate:
    Data:
        Version: 3 (0x2)
        Serial Number: 10 (0xa)
        Signature Algorithm: md5WithRSAEncryption
        Issuer: C=BE, ST=Vlaams-Brabant, L=Leuven, O=AUSY, O=not used, OU=Demo CA project, CN=Project1CA
        Validity
            Not Before: May  2 12:05:48 2014 GMT
            Not After : May  2 12:05:48 2015 GMT
        Subject: C=BE, ST=Brussels, L=Brussels, O=OLAF, OU=D.4 AFIS, CN=testing2/emailAddress=user@organisation.com
        Subject Public Key Info:
            Public Key Algorithm: rsaEncryption
            RSA Public Key: (2048 bit)
                Modulus (2048 bit):
                    00:db:f6:7b:61:02:15:50:b0:0f:dd:3d:66:47:6c:
                    3a:f2:a6:8d:73:96:96:68:1f:9e:6b:61:d8:f9:d2:
                    f8:6a:43:e1:9f:7e:e2:b6:22:a4:8a:3f:70:ea:46:
                    1c:32:2f:01:aa:90:2c:59:58:05:74:95:4a:1b:ac:
                    74:34:e4:90:b3:70:60:b9:41:2f:96:b5:56:53:b8:
                    a0:d9:0f:50:8a:31:5a:3b:d6:5f:3b:d9:44:18:25:
                    08:ca:2f:bd:63:6b:c4:e1:7c:78:2a:80:39:75:62:
                    05:f8:f1:a0:7e:3e:cb:01:20:26:98:a3:43:06:cc:
                    81:49:f1:7e:c8:90:b4:a8:88:e2:4a:70:2c:58:67:
                    ab:7a:55:d1:75:d4:5f:6c:77:70:69:13:7b:b0:64:
                    dd:46:7c:47:8d:d2:82:8a:25:12:f0:57:30:08:47:
                    98:50:28:ca:2f:08:9c:6b:e7:8e:0a:7c:d0:cb:81:
                    52:96:e3:51:18:38:45:df:03:70:de:65:2a:75:95:
                    6c:1d:72:98:9c:c5:8f:7e:5a:fc:f1:da:bf:32:3d:
                    80:b2:b2:60:76:d4:6f:c3:73:7f:4c:b4:b8:bc:a9:
                    57:c4:54:f8:19:9d:f2:f9:c4:2d:4b:ad:5c:03:0c:
                    3f:e7:e1:d1:1e:8c:f9:8b:f0:58:29:31:92:e4:3f:
                    5d:b3
                Exponent: 65537 (0x10001)
        X509v3 extensions:
            X509v3 Basic Constraints: 
                CA:FALSE
            Netscape Cert Type: 
                SSL Client, S/MIME
            Netscape Comment: 
                OpenSSL Generated Client Certificate
            X509v3 Subject Key Identifier: 
                CE:28:DD:F4:E4:66:F3:F1:6A:D1:E3:46:58:15:DC:BD:AB:44:2D:C5
            X509v3 Authority Key Identifier: 
                keyid:CE:9B:8C:9B:C8:59:66:42:49:1A:B4:F8:35:1B:9D:7F:D4:BC:90:75
                DirName:/C=BE/ST=Vlaams-Brabant/L=Leuven/O=AUSY/O=not used/OU=Demo CA project/CN=RootCA
                serial:01

    Signature Algorithm: md5WithRSAEncryption
        0f:97:ed:05:4f:4c:b9:4e:29:64:1e:dd:1c:ee:25:d2:61:0a:
        79:9a:a8:8a:30:0d:fc:dd:7c:e6:ad:76:7d:c2:77:10:d0:8f:
        16:58:85:aa:bb:42:ff:4d:0e:6b:de:9f:40:06:1f:36:ac:59:
        3f:20:ca:e4:65:45:08:63:99:71:c4:2c:23:41:25:4c:b5:a3:
        65:c9:39:80:d5:95:1b:70:15:fc:e9:f9:23:67:c1:a1:bf:f9:
        fc:e2:39:fb:39:b6:d8:c8:ed:10:a0:61:2a:d4:6e:bc:92:4c:
        6c:a6:f0:71:a8:ac:6d:ff:9c:1a:4b:d4:c4:ab:5e:53:17:fa:
        f6:ad:a5:f4:bf:c2:92:54:b1:0d:7a:31:77:56:1e:aa:5c:c3:
        1c:22:5c:d4:7a:ac:61:08:86:9e:1a:9c:be:73:24:eb:1d:2a:
        07:8b:04:26:78:2a:38:aa:53:2b:d4:3b:33:a9:a9:bf:89:bd:
        53:05:48:49:ba:18:f9:58:fd:9f:fe:22:b6:2a:e2:4e:ce:77:
        d3:8f:c8:7a:77:63:60:48:ab:18:71:a7:d1:2f:06:f9:89:1c:
        6d:05:13:04:e7:3a:ba:24:2a:5f:75:a3:74:97:b9:67:4e:c6:
        4c:82:bf:b8:3a:cc:b3:6f:03:9f:1f:47:19:65:fa:c5:d2:82:
        9d:dc:d8:5d
-----BEGIN CERTIFICATE-----
MIIEvzCCA6egAwIBAgIBCjANBgkqhkiG9w0BAQQFADCBiDELMAkGA1UEBhMCQkUx
FzAVBgNVBAgTDlZsYWFtcy1CcmFiYW50MQ8wDQYDVQQHEwZMZXV2ZW4xDTALBgNV
BAoTBEFVU1kxETAPBgNVBAoTCG5vdCB1c2VkMRgwFgYDVQQLEw9EZW1vIENBIHBy
b2plY3QxEzARBgNVBAMTClByb2plY3QxQ0EwHhcNMTQwNTAyMTIwNTQ4WhcNMTUw
NTAyMTIwNTQ4WjCBjjELMAkGA1UEBhMCQkUxETAPBgNVBAgTCEJydXNzZWxzMREw
DwYDVQQHEwhCcnVzc2VsczENMAsGA1UEChMET0xBRjERMA8GA1UECxMIRC40IEFG
SVMxETAPBgNVBAMTCHRlc3RpbmcyMSQwIgYJKoZIhvcNAQkBFhV1c2VyQG9yZ2Fu
aXNhdGlvbi5jb20wggEiMA0GCSqGSIb3DQEBAQUAA4IBDwAwggEKAoIBAQDb9nth
AhVQsA/dPWZHbDrypo1zlpZoH55rYdj50vhqQ+GffuK2IqSKP3DqRhwyLwGqkCxZ
WAV0lUobrHQ05JCzcGC5QS+WtVZTuKDZD1CKMVo71l872UQYJQjKL71ja8ThfHgq
gDl1YgX48aB+PssBICaYo0MGzIFJ8X7IkLSoiOJKcCxYZ6t6VdF11F9sd3BpE3uw
ZN1GfEeN0oKKJRLwVzAIR5hQKMovCJxr544KfNDLgVKW41EYOEXfA3DeZSp1lWwd
cpicxY9+Wvzx2r8yPYCysmB21G/Dc39MtLi8qVfEVPgZnfL5xC1LrVwDDD/n4dEe
jPmL8FgpMZLkP12zAgMBAAGjggEqMIIBJjAJBgNVHRMEAjAAMBEGCWCGSAGG+EIB
AQQEAwIFoDAzBglghkgBhvhCAQ0EJhYkT3BlblNTTCBHZW5lcmF0ZWQgQ2xpZW50
IENlcnRpZmljYXRlMB0GA1UdDgQWBBTOKN305Gbz8WrR40ZYFdy9q0QtxTCBsQYD
VR0jBIGpMIGmgBTOm4ybyFlmQkkatPg1G51/1LyQdaGBiqSBhzCBhDELMAkGA1UE
BhMCQkUxFzAVBgNVBAgTDlZsYWFtcy1CcmFiYW50MQ8wDQYDVQQHEwZMZXV2ZW4x
DTALBgNVBAoTBEFVU1kxETAPBgNVBAoTCG5vdCB1c2VkMRgwFgYDVQQLEw9EZW1v
IENBIHByb2plY3QxDzANBgNVBAMTBlJvb3RDQYIBATANBgkqhkiG9w0BAQQFAAOC
AQEAD5ftBU9MuU4pZB7dHO4l0mEKeZqoijAN/N185q12fcJ3ENCPFliFqrtC/00O
a96fQAYfNqxZPyDK5GVFCGOZccQsI0ElTLWjZck5gNWVG3AV/On5I2fBob/5/OI5
+zm22MjtEKBhKtRuvJJMbKbwcaisbf+cGkvUxKteUxf69q2l9L/CklSxDXoxd1Ye
qlzDHCJc1HqsYQiGnhqcvnMk6x0qB4sEJngqOKpTK9Q7M6mpv4m9UwVISboY+Vj9
n/4itiriTs5304/IendjYEirGHGn0S8G+YkcbQUTBOc6uiQqX3WjdJe5Z07GTIK/
uDrMs28Dnx9HGWX6xdKCndzYXQ==
-----END CERTIFICATE-----
