Certificate:
    Data:
        Version: 3 (0x2)
        Serial Number: 5 (0x5)
        Signature Algorithm: md5WithRSAEncryption
        Issuer: C=BE, ST=Vlaams-Brabant, L=Leuven, O=AUSY, O=not used, OU=Demo CA project, CN=Project1CA
        Validity
            Not Before: Apr 10 10:24:21 2014 GMT
            Not After : Apr 10 10:24:21 2015 GMT
        Subject: C=BE, ST=Vlaams-Brabant, L=Leuven, O=AUSY, O=not used, OU=Demo CA project, CN=demo_user
        Subject Public Key Info:
            Public Key Algorithm: rsaEncryption
            RSA Public Key: (2048 bit)
                Modulus (2048 bit):
                    00:b5:29:75:ee:14:a1:72:ce:1c:66:ce:c6:52:04:
                    26:51:14:2c:d1:f0:21:05:49:cb:83:d6:43:34:2e:
                    36:23:f4:72:51:b7:d3:3b:51:ca:67:3f:92:ef:32:
                    c2:21:4a:18:09:fe:e7:c9:99:79:6d:9e:c7:f2:ce:
                    61:95:5f:e2:94:fc:02:e4:89:5a:6e:d0:75:24:f9:
                    5e:23:9e:f2:85:20:85:0c:e9:9c:3e:8b:31:cc:74:
                    ec:8d:b5:72:f7:e9:7e:75:38:10:0a:6d:6a:63:c1:
                    92:e4:d0:41:6f:9c:dd:c2:d7:a8:53:b4:4e:9b:fc:
                    76:ef:65:38:cb:de:e4:8e:83:76:82:d7:f5:e4:bf:
                    f1:a8:40:5b:95:15:b8:bd:7e:a6:78:0f:98:20:6b:
                    3a:67:2b:61:e6:d6:c9:64:42:75:b6:85:69:4f:b7:
                    4b:5d:b2:9a:28:be:89:fa:9b:40:0f:3b:ce:9a:00:
                    5c:82:24:5a:0a:e5:e0:45:ac:ad:fb:b6:bc:50:71:
                    ec:f5:ba:00:ba:15:94:9f:b3:c6:40:a4:04:7c:54:
                    cc:be:19:31:3b:4b:66:2f:c0:9d:61:81:1a:2e:80:
                    fc:30:6a:2f:ef:55:25:3b:32:dc:9a:c4:ca:bc:30:
                    4c:e3:f9:19:f7:f6:82:a5:f9:8e:1f:54:b6:cc:a7:
                    c6:6f
                Exponent: 65537 (0x10001)
        X509v3 extensions:
            X509v3 Basic Constraints: 
                CA:FALSE
            Netscape Cert Type: 
                SSL Client, S/MIME
            Netscape Comment: 
                OpenSSL Generated Client Certificate
            X509v3 Subject Key Identifier: 
                2B:7C:DE:9E:B7:20:51:4E:60:4C:AD:F8:10:AF:97:2A:1D:6B:45:0D
            X509v3 Authority Key Identifier: 
                keyid:CE:9B:8C:9B:C8:59:66:42:49:1A:B4:F8:35:1B:9D:7F:D4:BC:90:75
                DirName:/C=BE/ST=Vlaams-Brabant/L=Leuven/O=AUSY/O=not used/OU=Demo CA project/CN=RootCA
                serial:01

    Signature Algorithm: md5WithRSAEncryption
        a5:94:54:e7:3a:36:71:79:00:eb:d2:14:ee:74:12:e7:dc:fe:
        f6:ed:6e:04:15:2f:83:e1:b7:76:d8:3a:d1:e8:83:83:af:ac:
        1f:ca:b2:d4:7d:2a:7d:f6:47:cb:05:07:79:3f:98:16:01:6f:
        34:4b:82:c1:e6:a3:f3:bd:0a:19:ee:55:2e:33:04:6e:ac:09:
        5c:cf:44:36:f0:0e:bb:7e:7b:36:c1:9f:db:95:59:e7:06:86:
        f3:fc:f7:a5:bc:32:36:18:66:ea:56:4a:dc:97:32:74:52:6f:
        3e:13:90:25:02:75:a0:21:14:da:55:c7:cf:4c:69:a4:25:e2:
        c4:ad:0d:0c:37:25:cf:5f:51:aa:ea:07:38:4e:73:0c:9d:fb:
        ce:bc:0c:62:58:06:bf:54:1d:ba:d5:9d:dc:2b:5b:ed:5c:cf:
        7a:42:11:32:41:cf:e1:ac:cf:7f:72:c2:70:75:61:ca:52:cb:
        e6:74:65:aa:2c:b7:24:01:1f:5b:7d:c3:fe:86:e7:b5:cd:38:
        1e:c6:4f:17:b3:c9:aa:25:e2:56:f9:93:59:27:af:2d:14:a6:
        1e:fc:5d:d4:0a:b5:0a:3c:5c:6f:01:8e:d3:39:f6:09:cc:3b:
        9a:96:7c:ee:88:58:27:83:b8:6d:af:8b:d9:71:a5:96:79:f5:
        89:1b:fc:80
-----BEGIN CERTIFICATE-----
MIIEuDCCA6CgAwIBAgIBBTANBgkqhkiG9w0BAQQFADCBiDELMAkGA1UEBhMCQkUx
FzAVBgNVBAgTDlZsYWFtcy1CcmFiYW50MQ8wDQYDVQQHEwZMZXV2ZW4xDTALBgNV
BAoTBEFVU1kxETAPBgNVBAoTCG5vdCB1c2VkMRgwFgYDVQQLEw9EZW1vIENBIHBy
b2plY3QxEzARBgNVBAMTClByb2plY3QxQ0EwHhcNMTQwNDEwMTAyNDIxWhcNMTUw
NDEwMTAyNDIxWjCBhzELMAkGA1UEBhMCQkUxFzAVBgNVBAgTDlZsYWFtcy1CcmFi
YW50MQ8wDQYDVQQHEwZMZXV2ZW4xDTALBgNVBAoTBEFVU1kxETAPBgNVBAoTCG5v
dCB1c2VkMRgwFgYDVQQLEw9EZW1vIENBIHByb2plY3QxEjAQBgNVBAMUCWRlbW9f
dXNlcjCCASIwDQYJKoZIhvcNAQEBBQADggEPADCCAQoCggEBALUpde4UoXLOHGbO
xlIEJlEULNHwIQVJy4PWQzQuNiP0clG30ztRymc/ku8ywiFKGAn+58mZeW2ex/LO
YZVf4pT8AuSJWm7QdST5XiOe8oUghQzpnD6LMcx07I21cvfpfnU4EAptamPBkuTQ
QW+c3cLXqFO0Tpv8du9lOMve5I6DdoLX9eS/8ahAW5UVuL1+pngPmCBrOmcrYebW
yWRCdbaFaU+3S12ymii+ifqbQA87zpoAXIIkWgrl4EWsrfu2vFBx7PW6ALoVlJ+z
xkCkBHxUzL4ZMTtLZi/AnWGBGi6A/DBqL+9VJTsy3JrEyrwwTOP5Gff2gqX5jh9U
tsynxm8CAwEAAaOCASowggEmMAkGA1UdEwQCMAAwEQYJYIZIAYb4QgEBBAQDAgWg
MDMGCWCGSAGG+EIBDQQmFiRPcGVuU1NMIEdlbmVyYXRlZCBDbGllbnQgQ2VydGlm
aWNhdGUwHQYDVR0OBBYEFCt83p63IFFOYEyt+BCvlyoda0UNMIGxBgNVHSMEgakw
gaaAFM6bjJvIWWZCSRq0+DUbnX/UvJB1oYGKpIGHMIGEMQswCQYDVQQGEwJCRTEX
MBUGA1UECBMOVmxhYW1zLUJyYWJhbnQxDzANBgNVBAcTBkxldXZlbjENMAsGA1UE
ChMEQVVTWTERMA8GA1UEChMIbm90IHVzZWQxGDAWBgNVBAsTD0RlbW8gQ0EgcHJv
amVjdDEPMA0GA1UEAxMGUm9vdENBggEBMA0GCSqGSIb3DQEBBAUAA4IBAQCllFTn
OjZxeQDr0hTudBLn3P727W4EFS+D4bd22DrR6IODr6wfyrLUfSp99kfLBQd5P5gW
AW80S4LB5qPzvQoZ7lUuMwRurAlcz0Q28A67fns2wZ/blVnnBobz/PelvDI2GGbq
VkrclzJ0Um8+E5AlAnWgIRTaVcfPTGmkJeLErQ0MNyXPX1Gq6gc4TnMMnfvOvAxi
WAa/VB261Z3cK1vtXM96QhEyQc/hrM9/csJwdWHKUsvmdGWqLLckAR9bfcP+hue1
zTgexk8Xs8mqJeJW+ZNZJ68tFKYe/F3UCrUKPFxvAY7TOfYJzDualnzuiFgng7ht
r4vZcaWWefWJG/yA
-----END CERTIFICATE-----
