Certificate:
    Data:
        Version: 3 (0x2)
        Serial Number: 1 (0x1)
        Signature Algorithm: md5WithRSAEncryption
        Issuer: C=BE, ST=Vlaams-Brabant, L=Leuven, O=AUSY, O=not used, OU=Demo CA project, CN=Project1CA
        Validity
            Not Before: Feb 27 13:54:19 2014 GMT
            Not After : Feb 27 13:54:19 2015 GMT
        Subject: C=BE, ST=Vlaams-Brabant, L=Leuven, O=AUSY, O=not used, OU=Demo CA project, CN=server.domain.be
        Subject Public Key Info:
            Public Key Algorithm: rsaEncryption
            RSA Public Key: (2048 bit)
                Modulus (2048 bit):
                    00:b7:94:26:c3:27:b6:5e:e2:de:a5:4c:19:ee:fc:
                    38:3d:3d:77:c7:bf:ca:6d:91:84:b2:30:57:36:f7:
                    e9:13:7f:71:a6:2e:c2:36:1e:b6:3c:93:2f:13:b4:
                    11:4e:1b:0a:f4:51:24:b5:01:89:1f:6e:c4:84:fe:
                    b3:74:22:c1:a7:0c:81:f6:f8:73:cd:d5:11:64:0e:
                    03:95:b4:e2:79:fe:83:17:15:76:be:cc:ac:18:50:
                    0c:0c:5c:5d:b0:26:a6:bd:d8:30:18:16:fb:f0:89:
                    18:60:d3:4f:71:f8:b4:28:20:04:cc:62:59:1a:32:
                    db:e8:a2:3b:73:8d:a9:23:9b:c9:6e:c4:57:4d:72:
                    e9:fd:84:bc:95:69:69:18:23:44:51:40:e6:07:52:
                    c9:89:ea:49:9a:ea:f3:b8:b1:f5:4b:39:38:ed:04:
                    f2:da:f8:52:f5:6f:09:37:e2:99:a6:cb:b1:7f:fb:
                    2a:80:dd:f5:58:94:ad:5c:e0:1f:57:61:b6:b9:25:
                    e2:d4:5c:d8:12:19:85:7d:64:72:0f:90:04:8a:05:
                    d3:99:2d:17:34:e8:f9:85:5b:c2:74:d3:84:bb:43:
                    f1:33:00:b1:6c:c4:27:6f:f3:ed:d2:62:4e:ab:7a:
                    23:a8:d7:6c:48:82:b8:0c:58:df:1b:e8:3f:00:da:
                    46:21
                Exponent: 65537 (0x10001)
        X509v3 extensions:
            X509v3 Basic Constraints: 
                CA:FALSE
            Netscape Cert Type: 
                SSL Client, S/MIME
            Netscape Comment: 
                OpenSSL Generated Client Certificate
            X509v3 Subject Key Identifier: 
                E5:1F:F3:DB:2B:20:DA:A9:E9:D2:E5:5F:73:38:0D:1F:2E:9A:66:C9
            X509v3 Authority Key Identifier: 
                keyid:CE:9B:8C:9B:C8:59:66:42:49:1A:B4:F8:35:1B:9D:7F:D4:BC:90:75
                DirName:/C=BE/ST=Vlaams-Brabant/L=Leuven/O=AUSY/O=not used/OU=Demo CA project/CN=RootCA
                serial:01

    Signature Algorithm: md5WithRSAEncryption
        43:02:4f:a5:b3:84:68:19:bd:9f:ec:19:9e:42:00:66:08:38:
        5e:c2:f8:ec:f6:33:ea:29:c6:2c:ef:36:52:03:4c:96:4f:93:
        76:e8:40:04:08:e2:af:32:7a:86:19:fe:49:ff:59:44:bf:22:
        9f:c1:a1:6f:cd:9b:07:7c:7c:82:c6:32:58:1e:61:25:ad:08:
        0a:5a:d2:94:6a:56:c1:d2:ea:e7:80:04:fc:b5:45:4f:79:85:
        6f:c2:fb:b3:66:a6:19:c1:e0:2b:86:db:e1:49:7d:0e:3b:0e:
        29:92:93:f2:74:55:e5:24:ee:77:ff:42:79:b9:db:14:2c:60:
        38:b8:a5:93:4c:18:c7:8f:dc:93:5f:22:95:58:c8:99:59:2b:
        31:6c:98:e2:40:93:b7:47:13:e3:de:fe:de:aa:04:25:b3:17:
        5d:77:35:22:68:0a:d9:e0:87:c2:ec:ab:df:58:ce:e9:5b:19:
        5d:bc:b2:2c:d0:19:92:34:85:d8:64:a4:f6:20:9f:f8:5e:dc:
        bd:4d:ca:e0:09:e6:f0:80:81:e3:d8:e1:a4:fe:77:af:88:15:
        bf:c3:75:25:d7:d0:45:6b:cb:d7:4c:c9:ee:5a:1f:2b:36:9f:
        47:d4:16:1d:eb:de:fd:8c:42:c4:8f:35:1b:ed:bb:14:7b:ae:
        c3:70:46:a5
-----BEGIN CERTIFICATE-----
MIIEvzCCA6egAwIBAgIBATANBgkqhkiG9w0BAQQFADCBiDELMAkGA1UEBhMCQkUx
FzAVBgNVBAgTDlZsYWFtcy1CcmFiYW50MQ8wDQYDVQQHEwZMZXV2ZW4xDTALBgNV
BAoTBEFVU1kxETAPBgNVBAoTCG5vdCB1c2VkMRgwFgYDVQQLEw9EZW1vIENBIHBy
b2plY3QxEzARBgNVBAMTClByb2plY3QxQ0EwHhcNMTQwMjI3MTM1NDE5WhcNMTUw
MjI3MTM1NDE5WjCBjjELMAkGA1UEBhMCQkUxFzAVBgNVBAgTDlZsYWFtcy1CcmFi
YW50MQ8wDQYDVQQHEwZMZXV2ZW4xDTALBgNVBAoTBEFVU1kxETAPBgNVBAoTCG5v
dCB1c2VkMRgwFgYDVQQLEw9EZW1vIENBIHByb2plY3QxGTAXBgNVBAMTEHNlcnZl
ci5kb21haW4uYmUwggEiMA0GCSqGSIb3DQEBAQUAA4IBDwAwggEKAoIBAQC3lCbD
J7Ze4t6lTBnu/Dg9PXfHv8ptkYSyMFc29+kTf3GmLsI2HrY8ky8TtBFOGwr0USS1
AYkfbsSE/rN0IsGnDIH2+HPN1RFkDgOVtOJ5/oMXFXa+zKwYUAwMXF2wJqa92DAY
FvvwiRhg009x+LQoIATMYlkaMtvoojtzjakjm8luxFdNcun9hLyVaWkYI0RRQOYH
UsmJ6kma6vO4sfVLOTjtBPLa+FL1bwk34pmmy7F/+yqA3fVYlK1c4B9XYba5JeLU
XNgSGYV9ZHIPkASKBdOZLRc06PmFW8J004S7Q/EzALFsxCdv8+3SYk6reiOo12xI
grgMWN8b6D8A2kYhAgMBAAGjggEqMIIBJjAJBgNVHRMEAjAAMBEGCWCGSAGG+EIB
AQQEAwIFoDAzBglghkgBhvhCAQ0EJhYkT3BlblNTTCBHZW5lcmF0ZWQgQ2xpZW50
IENlcnRpZmljYXRlMB0GA1UdDgQWBBTlH/PbKyDaqenS5V9zOA0fLppmyTCBsQYD
VR0jBIGpMIGmgBTOm4ybyFlmQkkatPg1G51/1LyQdaGBiqSBhzCBhDELMAkGA1UE
BhMCQkUxFzAVBgNVBAgTDlZsYWFtcy1CcmFiYW50MQ8wDQYDVQQHEwZMZXV2ZW4x
DTALBgNVBAoTBEFVU1kxETAPBgNVBAoTCG5vdCB1c2VkMRgwFgYDVQQLEw9EZW1v
IENBIHByb2plY3QxDzANBgNVBAMTBlJvb3RDQYIBATANBgkqhkiG9w0BAQQFAAOC
AQEAQwJPpbOEaBm9n+wZnkIAZgg4XsL47PYz6inGLO82UgNMlk+TduhABAjirzJ6
hhn+Sf9ZRL8in8Ghb82bB3x8gsYyWB5hJa0IClrSlGpWwdLq54AE/LVFT3mFb8L7
s2amGcHgK4bb4Ul9DjsOKZKT8nRV5STud/9CebnbFCxgOLilk0wYx4/ck18ilVjI
mVkrMWyY4kCTt0cT497+3qoEJbMXXXc1ImgK2eCHwuyr31jO6VsZXbyyLNAZkjSF
2GSk9iCf+F7cvU3K4Anm8ICB49jhpP53r4gVv8N1JdfQRWvL10zJ7lofKzafR9QW
Heve/YxCxI81G+27FHuuw3BGpQ==
-----END CERTIFICATE-----
