Certificate:
    Data:
        Version: 3 (0x2)
        Serial Number: 7 (0x7)
        Signature Algorithm: md5WithRSAEncryption
        Issuer: C=BE, ST=Vlaams-Brabant, L=Leuven, O=AUSY, O=not used, OU=Demo CA project, CN=Project1CA
        Validity
            Not Before: May  2 11:54:33 2014 GMT
            Not After : May  2 11:54:33 2015 GMT
        Subject: C=BE, ST=Brussels, L=Brussels, O=OLAF, OU=D.4 AFIS, CN=cert_testing/emailAddress=user@organisation.com
        Subject Public Key Info:
            Public Key Algorithm: rsaEncryption
            RSA Public Key: (2048 bit)
                Modulus (2048 bit):
                    00:d1:20:9b:5b:e2:46:e7:21:eb:87:f6:89:af:b7:
                    bf:e8:f0:0a:17:66:76:99:43:38:2a:19:fe:7c:69:
                    75:7d:ba:8d:fe:6d:3a:ee:14:b0:be:bb:c5:a8:c1:
                    ed:cf:58:e2:bd:bd:1d:bf:76:74:d2:7a:60:28:d2:
                    d9:2b:c8:1f:e0:4e:7b:58:51:36:28:1a:d5:0e:7b:
                    4e:22:8f:83:fe:d1:ce:9e:95:e1:c0:14:7d:d5:9f:
                    c0:7a:69:d6:0d:d4:fd:0c:0b:b7:09:f1:95:c4:85:
                    23:1c:57:38:fa:8b:8e:1a:61:e1:9b:a3:74:4c:56:
                    44:52:3d:35:9e:92:9d:3d:a8:a4:0e:af:94:12:34:
                    f4:00:75:5a:25:f4:ce:80:33:b9:06:a5:d3:b4:21:
                    89:96:76:50:3d:30:3d:77:1b:43:e9:20:8d:42:fa:
                    4a:61:9d:a0:38:a5:4c:bd:41:7d:86:71:90:bc:f5:
                    90:e9:93:1c:44:a4:7b:4d:d5:a8:c8:11:48:78:4e:
                    19:5a:f5:0e:b8:b2:ba:e6:cb:47:65:bc:18:ed:a3:
                    25:53:49:1f:84:9b:01:2f:dc:78:72:0c:e8:b5:c8:
                    a1:66:d9:87:db:ba:4e:15:d3:95:42:27:27:32:d0:
                    83:61:a1:7e:df:12:ff:47:a6:14:56:91:f3:7d:02:
                    c0:1d
                Exponent: 65537 (0x10001)
        X509v3 extensions:
            X509v3 Basic Constraints: 
                CA:FALSE
            Netscape Cert Type: 
                SSL Client, S/MIME
            Netscape Comment: 
                OpenSSL Generated Client Certificate
            X509v3 Subject Key Identifier: 
                47:60:BD:30:A8:2F:A6:FF:33:41:CD:6F:FD:DE:14:11:A0:C2:3A:F0
            X509v3 Authority Key Identifier: 
                keyid:CE:9B:8C:9B:C8:59:66:42:49:1A:B4:F8:35:1B:9D:7F:D4:BC:90:75
                DirName:/C=BE/ST=Vlaams-Brabant/L=Leuven/O=AUSY/O=not used/OU=Demo CA project/CN=RootCA
                serial:01

    Signature Algorithm: md5WithRSAEncryption
        0c:5f:c8:c7:a0:9a:76:80:1e:ff:8f:5e:53:96:81:9c:60:18:
        50:ef:4a:36:24:8e:87:c5:c2:a2:8a:ae:61:0c:27:5d:61:13:
        b5:ea:57:91:26:e4:be:bc:ef:e0:51:54:a5:57:0e:c4:df:67:
        c3:16:10:d7:64:10:5c:2f:36:71:f5:48:6f:46:26:70:72:4a:
        58:f4:ae:dc:3e:0c:55:25:b5:02:83:28:b9:75:dd:58:2c:18:
        d2:88:58:54:64:d6:ee:2f:6b:8c:fe:09:d7:74:01:fa:d9:37:
        9a:18:63:49:2a:f3:9c:e5:33:57:af:27:2c:92:10:16:ff:b6:
        3b:c6:68:33:70:1a:24:fd:93:ff:56:24:65:e7:8a:84:bf:ef:
        16:c4:38:a6:aa:98:e3:ae:7c:36:89:3b:1a:59:e5:1b:bc:f7:
        73:5f:f0:b2:5c:59:80:88:ac:88:c7:86:a3:49:b6:fb:9b:61:
        5f:3e:a2:24:35:9b:ae:99:42:93:2d:a8:4d:32:db:99:6d:fd:
        25:04:c0:67:ae:5a:c9:0a:73:99:1f:b5:fc:8d:0d:0c:50:11:
        59:67:5a:2d:73:d7:54:6e:3d:67:2a:db:f7:ef:1c:ff:95:79:
        dd:19:ba:00:08:fe:61:c6:a2:25:72:34:92:df:21:92:9d:aa:
        35:71:c1:75
-----BEGIN CERTIFICATE-----
MIIEwzCCA6ugAwIBAgIBBzANBgkqhkiG9w0BAQQFADCBiDELMAkGA1UEBhMCQkUx
FzAVBgNVBAgTDlZsYWFtcy1CcmFiYW50MQ8wDQYDVQQHEwZMZXV2ZW4xDTALBgNV
BAoTBEFVU1kxETAPBgNVBAoTCG5vdCB1c2VkMRgwFgYDVQQLEw9EZW1vIENBIHBy
b2plY3QxEzARBgNVBAMTClByb2plY3QxQ0EwHhcNMTQwNTAyMTE1NDMzWhcNMTUw
NTAyMTE1NDMzWjCBkjELMAkGA1UEBhMCQkUxETAPBgNVBAgTCEJydXNzZWxzMREw
DwYDVQQHEwhCcnVzc2VsczENMAsGA1UEChMET0xBRjERMA8GA1UECxMIRC40IEFG
SVMxFTATBgNVBAMUDGNlcnRfdGVzdGluZzEkMCIGCSqGSIb3DQEJARYVdXNlckBv
cmdhbmlzYXRpb24uY29tMIIBIjANBgkqhkiG9w0BAQEFAAOCAQ8AMIIBCgKCAQEA
0SCbW+JG5yHrh/aJr7e/6PAKF2Z2mUM4Khn+fGl1fbqN/m067hSwvrvFqMHtz1ji
vb0dv3Z00npgKNLZK8gf4E57WFE2KBrVDntOIo+D/tHOnpXhwBR91Z/AemnWDdT9
DAu3CfGVxIUjHFc4+ouOGmHhm6N0TFZEUj01npKdPaikDq+UEjT0AHVaJfTOgDO5
BqXTtCGJlnZQPTA9dxtD6SCNQvpKYZ2gOKVMvUF9hnGQvPWQ6ZMcRKR7TdWoyBFI
eE4ZWvUOuLK65stHZbwY7aMlU0kfhJsBL9x4cgzotcihZtmH27pOFdOVQicnMtCD
YaF+3xL/R6YUVpHzfQLAHQIDAQABo4IBKjCCASYwCQYDVR0TBAIwADARBglghkgB
hvhCAQEEBAMCBaAwMwYJYIZIAYb4QgENBCYWJE9wZW5TU0wgR2VuZXJhdGVkIENs
aWVudCBDZXJ0aWZpY2F0ZTAdBgNVHQ4EFgQUR2C9MKgvpv8zQc1v/d4UEaDCOvAw
gbEGA1UdIwSBqTCBpoAUzpuMm8hZZkJJGrT4NRudf9S8kHWhgYqkgYcwgYQxCzAJ
BgNVBAYTAkJFMRcwFQYDVQQIEw5WbGFhbXMtQnJhYmFudDEPMA0GA1UEBxMGTGV1
dmVuMQ0wCwYDVQQKEwRBVVNZMREwDwYDVQQKEwhub3QgdXNlZDEYMBYGA1UECxMP
RGVtbyBDQSBwcm9qZWN0MQ8wDQYDVQQDEwZSb290Q0GCAQEwDQYJKoZIhvcNAQEE
BQADggEBAAxfyMegmnaAHv+PXlOWgZxgGFDvSjYkjofFwqKKrmEMJ11hE7XqV5Em
5L687+BRVKVXDsTfZ8MWENdkEFwvNnH1SG9GJnBySlj0rtw+DFUltQKDKLl13Vgs
GNKIWFRk1u4va4z+Cdd0AfrZN5oYY0kq85zlM1evJyySEBb/tjvGaDNwGiT9k/9W
JGXnioS/7xbEOKaqmOOufDaJOxpZ5Ru893Nf8LJcWYCIrIjHhqNJtvubYV8+oiQ1
m66ZQpMtqE0y25lt/SUEwGeuWskKc5kftfyNDQxQEVlnWi1z11RuPWcq2/fvHP+V
ed0ZugAI/mHGoiVyNJLfIZKdqjVxwXU=
-----END CERTIFICATE-----
