Certificate:
    Data:
        Version: 3 (0x2)
        Serial Number: 8 (0x8)
        Signature Algorithm: md5WithRSAEncryption
        Issuer: C=BE, ST=Vlaams-Brabant, L=Leuven, O=AUSY, O=not used, OU=Demo CA project, CN=Project1CA
        Validity
            Not Before: May  2 11:56:58 2014 GMT
            Not After : May  2 11:56:58 2015 GMT
        Subject: C=BE, ST=Brussels, L=Brussels, O=OLAF, OU=D.4 AFIS, CN=test_this_zip/emailAddress=user@organisation.com
        Subject Public Key Info:
            Public Key Algorithm: rsaEncryption
            RSA Public Key: (2048 bit)
                Modulus (2048 bit):
                    00:b3:87:cd:be:04:88:bb:c7:36:38:ee:c8:cf:39:
                    e6:77:e9:bd:60:1e:b8:e2:b9:62:ce:99:0e:9e:56:
                    81:85:1b:be:c4:4a:c7:07:06:91:bc:da:18:49:67:
                    82:ef:f7:1e:a6:13:a7:e1:f4:85:09:25:3d:33:5f:
                    40:91:51:e1:36:63:1a:3a:b8:d7:20:1c:43:a4:0b:
                    1a:c4:fa:41:b5:4c:17:c0:e8:30:09:0f:db:7c:ce:
                    20:9f:09:e4:b4:3f:68:e3:94:9d:fa:f9:02:da:78:
                    24:b2:8e:43:91:8f:e2:a9:9a:a8:a4:2b:05:26:2a:
                    90:df:41:f1:74:d9:2d:e7:1c:4b:28:c3:9d:44:72:
                    35:23:90:39:2d:ce:fd:57:b8:0d:35:e5:da:10:c2:
                    43:ef:bb:99:70:e0:38:8d:44:b4:f5:25:16:20:87:
                    e9:2c:64:61:b9:da:82:d1:44:8a:f0:8d:e4:b3:24:
                    b6:be:e7:c1:fd:0b:a2:db:e3:de:a7:cd:37:12:1b:
                    54:ec:fc:a9:5e:5d:00:f3:ac:f9:c4:30:79:0a:28:
                    76:15:1b:0e:f8:98:3d:0b:b5:b8:c9:c5:43:32:7e:
                    db:1d:7d:fd:b1:39:13:ad:3e:c3:e4:6b:96:7b:8c:
                    48:1f:ff:23:3f:02:f0:e1:38:4e:65:c4:ee:ef:03:
                    92:cb
                Exponent: 65537 (0x10001)
        X509v3 extensions:
            X509v3 Basic Constraints: 
                CA:FALSE
            Netscape Cert Type: 
                SSL Client, S/MIME
            Netscape Comment: 
                OpenSSL Generated Client Certificate
            X509v3 Subject Key Identifier: 
                B2:F8:6C:A7:49:E3:BC:93:D2:8E:BD:47:E7:0B:39:CB:CC:FB:5F:61
            X509v3 Authority Key Identifier: 
                keyid:CE:9B:8C:9B:C8:59:66:42:49:1A:B4:F8:35:1B:9D:7F:D4:BC:90:75
                DirName:/C=BE/ST=Vlaams-Brabant/L=Leuven/O=AUSY/O=not used/OU=Demo CA project/CN=RootCA
                serial:01

    Signature Algorithm: md5WithRSAEncryption
        8e:35:5d:0b:34:f2:48:6f:50:61:a4:9c:ca:2b:cb:33:25:23:
        3b:ba:22:d7:a5:a9:12:5d:c2:f8:5d:01:a2:49:ca:70:86:2e:
        f5:7e:d2:66:57:66:71:e4:71:ae:7d:02:0c:49:8a:86:95:59:
        94:7c:79:c0:5f:c1:a7:d0:83:81:b5:19:12:86:10:da:04:73:
        b3:bc:82:a7:62:ba:e6:cf:1f:92:d9:c8:92:81:72:dc:da:88:
        75:72:85:75:1f:82:f9:b6:db:4a:39:66:63:40:61:98:2e:67:
        ee:e8:b9:f6:2b:b5:e7:2a:53:fc:41:9a:28:c6:c6:3c:a7:81:
        bd:ef:0e:90:82:76:e3:52:df:ae:e4:4b:03:de:ea:71:8e:3b:
        9a:ca:4e:fb:94:f0:52:72:47:11:e0:a8:59:f6:89:26:b5:17:
        26:76:12:ae:a2:ce:fe:c0:f6:38:7d:cd:d5:9c:88:19:05:92:
        40:a3:1d:29:8f:69:2e:9e:c9:51:0d:22:f7:5e:78:1b:b5:d2:
        df:b3:f7:28:d6:49:3d:4f:39:47:2e:bf:4c:43:14:01:41:0e:
        65:08:b0:ad:f8:a0:b9:28:ae:4b:ed:15:4b:49:af:da:0d:dd:
        29:5a:da:57:8d:6c:40:ee:91:3d:30:f9:be:24:8a:fe:04:bf:
        63:b0:17:fe
-----BEGIN CERTIFICATE-----
MIIExDCCA6ygAwIBAgIBCDANBgkqhkiG9w0BAQQFADCBiDELMAkGA1UEBhMCQkUx
FzAVBgNVBAgTDlZsYWFtcy1CcmFiYW50MQ8wDQYDVQQHEwZMZXV2ZW4xDTALBgNV
BAoTBEFVU1kxETAPBgNVBAoTCG5vdCB1c2VkMRgwFgYDVQQLEw9EZW1vIENBIHBy
b2plY3QxEzARBgNVBAMTClByb2plY3QxQ0EwHhcNMTQwNTAyMTE1NjU4WhcNMTUw
NTAyMTE1NjU4WjCBkzELMAkGA1UEBhMCQkUxETAPBgNVBAgTCEJydXNzZWxzMREw
DwYDVQQHEwhCcnVzc2VsczENMAsGA1UEChMET0xBRjERMA8GA1UECxMIRC40IEFG
SVMxFjAUBgNVBAMUDXRlc3RfdGhpc196aXAxJDAiBgkqhkiG9w0BCQEWFXVzZXJA
b3JnYW5pc2F0aW9uLmNvbTCCASIwDQYJKoZIhvcNAQEBBQADggEPADCCAQoCggEB
ALOHzb4EiLvHNjjuyM855nfpvWAeuOK5Ys6ZDp5WgYUbvsRKxwcGkbzaGElngu/3
HqYTp+H0hQklPTNfQJFR4TZjGjq41yAcQ6QLGsT6QbVMF8DoMAkP23zOIJ8J5LQ/
aOOUnfr5Atp4JLKOQ5GP4qmaqKQrBSYqkN9B8XTZLeccSyjDnURyNSOQOS3O/Ve4
DTXl2hDCQ++7mXDgOI1EtPUlFiCH6SxkYbnagtFEivCN5LMktr7nwf0Lotvj3qfN
NxIbVOz8qV5dAPOs+cQweQoodhUbDviYPQu1uMnFQzJ+2x19/bE5E60+w+RrlnuM
SB//Iz8C8OE4TmXE7u8DkssCAwEAAaOCASowggEmMAkGA1UdEwQCMAAwEQYJYIZI
AYb4QgEBBAQDAgWgMDMGCWCGSAGG+EIBDQQmFiRPcGVuU1NMIEdlbmVyYXRlZCBD
bGllbnQgQ2VydGlmaWNhdGUwHQYDVR0OBBYEFLL4bKdJ47yT0o69R+cLOcvM+19h
MIGxBgNVHSMEgakwgaaAFM6bjJvIWWZCSRq0+DUbnX/UvJB1oYGKpIGHMIGEMQsw
CQYDVQQGEwJCRTEXMBUGA1UECBMOVmxhYW1zLUJyYWJhbnQxDzANBgNVBAcTBkxl
dXZlbjENMAsGA1UEChMEQVVTWTERMA8GA1UEChMIbm90IHVzZWQxGDAWBgNVBAsT
D0RlbW8gQ0EgcHJvamVjdDEPMA0GA1UEAxMGUm9vdENBggEBMA0GCSqGSIb3DQEB
BAUAA4IBAQCONV0LNPJIb1BhpJzKK8szJSM7uiLXpakSXcL4XQGiScpwhi71ftJm
V2Zx5HGufQIMSYqGlVmUfHnAX8Gn0IOBtRkShhDaBHOzvIKnYrrmzx+S2ciSgXLc
2oh1coV1H4L5tttKOWZjQGGYLmfu6Ln2K7XnKlP8QZooxsY8p4G97w6QgnbjUt+u
5EsD3upxjjuayk77lPBSckcR4KhZ9okmtRcmdhKuos7+wPY4fc3VnIgZBZJAox0p
j2kunslRDSL3XngbtdLfs/co1kk9TzlHLr9MQxQBQQ5lCLCt+KC5KK5L7RVLSa/a
Dd0pWtpXjWxA7pE9MPm+JIr+BL9jsBf+
-----END CERTIFICATE-----
