Certificate:
    Data:
        Version: 3 (0x2)
        Serial Number: 13 (0xd)
        Signature Algorithm: md5WithRSAEncryption
        Issuer: C=BE, ST=Vlaams-Brabant, L=Leuven, O=AUSY, O=not used, OU=Demo CA project, CN=Project1CA
        Validity
            Not Before: May  2 12:10:44 2014 GMT
            Not After : May  2 12:10:44 2015 GMT
        Subject: C=BE, ST=Brussels, L=Brussels, O=OLAF, OU=D.4 AFIS, CN=test5/emailAddress=user@organisation.com
        Subject Public Key Info:
            Public Key Algorithm: rsaEncryption
            RSA Public Key: (2048 bit)
                Modulus (2048 bit):
                    00:b9:f0:17:fa:47:38:d4:f5:80:6d:9b:8b:0d:9d:
                    51:4f:19:22:8c:e9:dc:07:96:d8:15:28:34:38:64:
                    7a:9e:01:a6:3f:a6:f8:e4:6c:99:b8:ec:dc:f2:43:
                    09:90:81:ce:04:8b:6e:a4:e1:00:5f:87:66:b6:8a:
                    f5:f3:61:f2:ba:13:b7:b4:00:4f:03:59:14:54:06:
                    ab:0b:f3:1d:f6:c6:ec:73:23:76:f0:f0:3c:13:48:
                    f4:f3:f3:2b:0d:64:14:38:e1:3c:2f:0a:b8:3d:63:
                    e7:81:10:2b:33:a3:38:82:58:95:71:dc:14:94:02:
                    8a:26:e0:ad:97:11:c1:eb:02:25:af:ef:e8:58:7c:
                    34:c0:f1:bc:ac:c5:cd:5d:97:5c:fe:d7:dc:5d:f9:
                    6e:43:7d:ab:04:34:35:60:84:78:7c:e4:45:f1:eb:
                    b7:b3:a9:37:8d:86:c9:7d:8a:ef:bb:55:62:ae:35:
                    40:b5:5b:bb:dc:6c:e5:21:d8:55:0b:7f:cc:93:03:
                    6f:68:d9:97:c1:12:b5:53:31:28:fd:b1:07:5b:6a:
                    c2:90:d0:5d:64:f3:f2:53:3d:f9:e4:b1:1c:6b:01:
                    e9:e7:35:09:e2:96:96:cb:99:4d:cc:bf:a8:63:92:
                    a7:6e:79:8a:70:b2:b4:80:dc:c9:e9:bf:8c:ce:8a:
                    e1:5d
                Exponent: 65537 (0x10001)
        X509v3 extensions:
            X509v3 Basic Constraints: 
                CA:FALSE
            Netscape Cert Type: 
                SSL Client, S/MIME
            Netscape Comment: 
                OpenSSL Generated Client Certificate
            X509v3 Subject Key Identifier: 
                F0:19:41:8D:9A:59:4D:F7:E2:D9:16:1D:4F:BF:6E:63:C2:2B:F2:8B
            X509v3 Authority Key Identifier: 
                keyid:CE:9B:8C:9B:C8:59:66:42:49:1A:B4:F8:35:1B:9D:7F:D4:BC:90:75
                DirName:/C=BE/ST=Vlaams-Brabant/L=Leuven/O=AUSY/O=not used/OU=Demo CA project/CN=RootCA
                serial:01

    Signature Algorithm: md5WithRSAEncryption
        7e:d7:45:5c:c2:e3:b1:ff:83:bc:4f:1c:be:79:07:1b:7c:25:
        c3:c0:76:cb:95:c9:ae:a3:75:de:b5:d5:20:75:d6:24:99:e0:
        5a:00:1d:b9:42:54:bd:10:d4:95:f3:3c:bc:82:46:77:4f:4f:
        c8:3a:4f:c0:5e:ef:c9:f8:6c:99:7e:9f:71:1d:c4:bd:29:60:
        0f:fd:c1:92:0c:90:31:be:3f:56:ee:51:f1:e1:e4:b4:8b:28:
        3f:68:90:c2:6b:dc:f6:1d:2e:bc:dc:bb:65:60:5a:bd:39:a8:
        69:ff:8c:1e:ce:e8:f4:57:74:47:91:79:03:72:97:c3:22:78:
        b6:e7:f7:91:d9:df:47:79:28:eb:5f:d9:fa:8c:1a:c2:63:3c:
        6d:83:41:13:ed:60:d4:8f:dc:08:a4:07:f7:29:41:9b:83:79:
        72:9c:71:77:ce:16:8f:66:19:62:6f:54:a4:e1:37:6f:1f:b6:
        40:33:e9:8c:13:e8:70:10:fe:16:0d:20:f0:67:bc:a0:de:52:
        da:3e:a3:56:99:e9:ce:f7:3b:23:79:9c:5e:da:b5:36:4a:77:
        0b:b6:7c:4c:6c:26:f4:59:08:28:55:3a:4a:32:81:5f:17:f9:
        71:28:0f:cf:1d:9b:cf:12:8c:4d:06:3e:01:ed:e2:5b:cb:d4:
        63:42:94:aa
-----BEGIN CERTIFICATE-----
MIIEvDCCA6SgAwIBAgIBDTANBgkqhkiG9w0BAQQFADCBiDELMAkGA1UEBhMCQkUx
FzAVBgNVBAgTDlZsYWFtcy1CcmFiYW50MQ8wDQYDVQQHEwZMZXV2ZW4xDTALBgNV
BAoTBEFVU1kxETAPBgNVBAoTCG5vdCB1c2VkMRgwFgYDVQQLEw9EZW1vIENBIHBy
b2plY3QxEzARBgNVBAMTClByb2plY3QxQ0EwHhcNMTQwNTAyMTIxMDQ0WhcNMTUw
NTAyMTIxMDQ0WjCBizELMAkGA1UEBhMCQkUxETAPBgNVBAgTCEJydXNzZWxzMREw
DwYDVQQHEwhCcnVzc2VsczENMAsGA1UEChMET0xBRjERMA8GA1UECxMIRC40IEFG
SVMxDjAMBgNVBAMTBXRlc3Q1MSQwIgYJKoZIhvcNAQkBFhV1c2VyQG9yZ2FuaXNh
dGlvbi5jb20wggEiMA0GCSqGSIb3DQEBAQUAA4IBDwAwggEKAoIBAQC58Bf6RzjU
9YBtm4sNnVFPGSKM6dwHltgVKDQ4ZHqeAaY/pvjkbJm47NzyQwmQgc4Ei26k4QBf
h2a2ivXzYfK6E7e0AE8DWRRUBqsL8x32xuxzI3bw8DwTSPTz8ysNZBQ44TwvCrg9
Y+eBECszoziCWJVx3BSUAoom4K2XEcHrAiWv7+hYfDTA8bysxc1dl1z+19xd+W5D
fasENDVghHh85EXx67ezqTeNhsl9iu+7VWKuNUC1W7vcbOUh2FULf8yTA29o2ZfB
ErVTMSj9sQdbasKQ0F1k8/JTPfnksRxrAennNQnilpbLmU3Mv6hjkqdueYpwsrSA
3Mnpv4zOiuFdAgMBAAGjggEqMIIBJjAJBgNVHRMEAjAAMBEGCWCGSAGG+EIBAQQE
AwIFoDAzBglghkgBhvhCAQ0EJhYkT3BlblNTTCBHZW5lcmF0ZWQgQ2xpZW50IENl
cnRpZmljYXRlMB0GA1UdDgQWBBTwGUGNmllN9+LZFh1Pv25jwivyizCBsQYDVR0j
BIGpMIGmgBTOm4ybyFlmQkkatPg1G51/1LyQdaGBiqSBhzCBhDELMAkGA1UEBhMC
QkUxFzAVBgNVBAgTDlZsYWFtcy1CcmFiYW50MQ8wDQYDVQQHEwZMZXV2ZW4xDTAL
BgNVBAoTBEFVU1kxETAPBgNVBAoTCG5vdCB1c2VkMRgwFgYDVQQLEw9EZW1vIENB
IHByb2plY3QxDzANBgNVBAMTBlJvb3RDQYIBATANBgkqhkiG9w0BAQQFAAOCAQEA
ftdFXMLjsf+DvE8cvnkHG3wlw8B2y5XJrqN13rXVIHXWJJngWgAduUJUvRDUlfM8
vIJGd09PyDpPwF7vyfhsmX6fcR3EvSlgD/3BkgyQMb4/Vu5R8eHktIsoP2iQwmvc
9h0uvNy7ZWBavTmoaf+MHs7o9Fd0R5F5A3KXwyJ4tuf3kdnfR3ko61/Z+owawmM8
bYNBE+1g1I/cCKQH9ylBm4N5cpxxd84Wj2YZYm9UpOE3bx+2QDPpjBPocBD+Fg0g
8Ge8oN5S2j6jVpnpzvc7I3mcXtq1Nkp3C7Z8TGwm9FkIKFU6SjKBXxf5cSgPzx2b
zxKMTQY+Ae3iW8vUY0KUqg==
-----END CERTIFICATE-----
