Certificate:
    Data:
        Version: 3 (0x2)
        Serial Number: 15 (0xf)
        Signature Algorithm: md5WithRSAEncryption
        Issuer: C=BE, ST=Vlaams-Brabant, L=Leuven, O=AUSY, O=not used, OU=Demo CA project, CN=Project1CA
        Validity
            Not Before: May  2 12:17:53 2014 GMT
            Not After : May  2 12:17:53 2015 GMT
        Subject: C=BE, ST=Brussels, L=Brussels, O=OLAF, OU=D.4 AFIS, CN=testing7/emailAddress=user@organisation.com
        Subject Public Key Info:
            Public Key Algorithm: rsaEncryption
            RSA Public Key: (2048 bit)
                Modulus (2048 bit):
                    00:ac:19:5e:65:c7:91:a5:56:74:4b:9d:4a:4f:8b:
                    ee:13:42:f9:d3:3b:4e:86:31:50:e3:cc:de:d3:52:
                    f4:b9:9d:09:50:7f:0b:7d:05:05:e3:26:75:cd:cf:
                    e1:16:8b:ae:04:2e:10:fb:5e:2a:3d:a9:16:62:2a:
                    87:39:cd:ac:0a:d2:df:ff:2a:61:32:bf:5e:46:8c:
                    23:9a:ec:1a:ad:1e:0d:d4:34:7e:f5:00:2a:c8:0c:
                    4b:16:d3:df:8d:e5:c7:18:74:72:38:f2:9a:c8:ee:
                    77:5b:53:4e:04:b8:6d:d9:1c:e1:7f:bf:46:fe:2c:
                    d8:24:80:e7:9c:ae:dc:fb:8e:e0:53:0a:41:de:ba:
                    91:cb:d5:0f:4a:5b:5c:5d:53:62:a2:fb:2f:89:16:
                    31:43:73:c5:52:46:c6:fa:01:68:92:0d:19:9c:43:
                    ad:dc:20:07:13:c2:7a:be:a6:0f:7f:25:f2:33:0a:
                    c4:43:0c:4f:fb:62:b5:9b:eb:cf:58:8d:b8:c4:e3:
                    f6:d4:d0:f4:f1:51:d4:5c:8a:01:95:a3:63:4c:e9:
                    b4:cc:f3:71:f3:e2:e3:0c:df:5e:90:49:7d:2c:c5:
                    58:e3:d7:5c:19:7a:c3:d0:3b:05:17:e1:8f:40:7a:
                    16:3f:f7:80:35:6f:10:5c:6b:de:f8:c9:48:bb:6c:
                    22:ef
                Exponent: 65537 (0x10001)
        X509v3 extensions:
            X509v3 Basic Constraints: 
                CA:FALSE
            Netscape Cert Type: 
                SSL Client, S/MIME
            Netscape Comment: 
                OpenSSL Generated Client Certificate
            X509v3 Subject Key Identifier: 
                88:11:2A:7E:BC:54:D2:00:4D:BF:80:62:74:84:FA:F9:8A:7A:44:8A
            X509v3 Authority Key Identifier: 
                keyid:CE:9B:8C:9B:C8:59:66:42:49:1A:B4:F8:35:1B:9D:7F:D4:BC:90:75
                DirName:/C=BE/ST=Vlaams-Brabant/L=Leuven/O=AUSY/O=not used/OU=Demo CA project/CN=RootCA
                serial:01

    Signature Algorithm: md5WithRSAEncryption
        57:7b:e8:fa:12:cd:5e:4c:46:34:b4:d1:b4:7a:c2:3b:dc:41:
        a7:42:01:e0:51:4d:5e:cd:53:fa:ad:84:e7:07:ce:d7:02:55:
        9c:cc:47:a8:fc:0b:25:71:f6:cf:d1:f6:8e:f4:9c:31:82:72:
        ad:32:f5:77:dd:7c:12:b6:28:19:f7:06:a6:27:c0:d5:76:6b:
        eb:8f:8b:a4:08:c7:da:66:7c:6d:cb:c6:71:a9:5e:fb:97:44:
        53:5a:d1:8b:4b:64:69:5f:82:aa:8a:8b:30:02:9d:62:3e:96:
        6c:0e:f0:88:0c:10:21:9d:4e:b3:c4:e4:cc:32:82:45:87:b2:
        76:f2:33:14:c6:18:d1:85:c9:98:1e:6f:b8:6c:33:8d:66:9c:
        77:f2:fe:86:73:c1:a5:e3:b1:58:a4:dd:58:27:4c:85:65:e2:
        02:90:05:c0:a9:64:72:f6:0e:ee:fa:d9:fd:fd:8a:c6:4d:2f:
        ce:2f:d7:d5:70:94:11:79:2d:90:b7:8b:7e:91:4e:40:b9:4c:
        66:5c:b2:fc:c9:08:6e:14:36:21:3a:b4:1c:66:b2:d8:80:8c:
        22:d3:ce:30:e2:30:a2:4d:8e:ba:81:fa:76:08:bf:cb:74:3e:
        0c:bf:37:72:e4:ca:92:46:e3:97:1a:b5:e8:42:4f:df:03:9d:
        70:79:08:35
-----BEGIN CERTIFICATE-----
MIIEvzCCA6egAwIBAgIBDzANBgkqhkiG9w0BAQQFADCBiDELMAkGA1UEBhMCQkUx
FzAVBgNVBAgTDlZsYWFtcy1CcmFiYW50MQ8wDQYDVQQHEwZMZXV2ZW4xDTALBgNV
BAoTBEFVU1kxETAPBgNVBAoTCG5vdCB1c2VkMRgwFgYDVQQLEw9EZW1vIENBIHBy
b2plY3QxEzARBgNVBAMTClByb2plY3QxQ0EwHhcNMTQwNTAyMTIxNzUzWhcNMTUw
NTAyMTIxNzUzWjCBjjELMAkGA1UEBhMCQkUxETAPBgNVBAgTCEJydXNzZWxzMREw
DwYDVQQHEwhCcnVzc2VsczENMAsGA1UEChMET0xBRjERMA8GA1UECxMIRC40IEFG
SVMxETAPBgNVBAMTCHRlc3Rpbmc3MSQwIgYJKoZIhvcNAQkBFhV1c2VyQG9yZ2Fu
aXNhdGlvbi5jb20wggEiMA0GCSqGSIb3DQEBAQUAA4IBDwAwggEKAoIBAQCsGV5l
x5GlVnRLnUpPi+4TQvnTO06GMVDjzN7TUvS5nQlQfwt9BQXjJnXNz+EWi64ELhD7
Xio9qRZiKoc5zawK0t//KmEyv15GjCOa7BqtHg3UNH71ACrIDEsW09+N5ccYdHI4
8prI7ndbU04EuG3ZHOF/v0b+LNgkgOecrtz7juBTCkHeupHL1Q9KW1xdU2Ki+y+J
FjFDc8VSRsb6AWiSDRmcQ63cIAcTwnq+pg9/JfIzCsRDDE/7YrWb689YjbjE4/bU
0PTxUdRcigGVo2NM6bTM83Hz4uMM316QSX0sxVjj11wZesPQOwUX4Y9AehY/94A1
bxBca974yUi7bCLvAgMBAAGjggEqMIIBJjAJBgNVHRMEAjAAMBEGCWCGSAGG+EIB
AQQEAwIFoDAzBglghkgBhvhCAQ0EJhYkT3BlblNTTCBHZW5lcmF0ZWQgQ2xpZW50
IENlcnRpZmljYXRlMB0GA1UdDgQWBBSIESp+vFTSAE2/gGJ0hPr5inpEijCBsQYD
VR0jBIGpMIGmgBTOm4ybyFlmQkkatPg1G51/1LyQdaGBiqSBhzCBhDELMAkGA1UE
BhMCQkUxFzAVBgNVBAgTDlZsYWFtcy1CcmFiYW50MQ8wDQYDVQQHEwZMZXV2ZW4x
DTALBgNVBAoTBEFVU1kxETAPBgNVBAoTCG5vdCB1c2VkMRgwFgYDVQQLEw9EZW1v
IENBIHByb2plY3QxDzANBgNVBAMTBlJvb3RDQYIBATANBgkqhkiG9w0BAQQFAAOC
AQEAV3vo+hLNXkxGNLTRtHrCO9xBp0IB4FFNXs1T+q2E5wfO1wJVnMxHqPwLJXH2
z9H2jvScMYJyrTL1d918ErYoGfcGpifA1XZr64+LpAjH2mZ8bcvGcale+5dEU1rR
i0tkaV+CqoqLMAKdYj6WbA7wiAwQIZ1Os8TkzDKCRYeydvIzFMYY0YXJmB5vuGwz
jWacd/L+hnPBpeOxWKTdWCdMhWXiApAFwKlkcvYO7vrZ/f2Kxk0vzi/X1XCUEXkt
kLeLfpFOQLlMZlyy/MkIbhQ2ITq0HGay2ICMItPOMOIwok2OuoH6dgi/y3Q+DL83
cuTKkkbjlxq16EJP3wOdcHkINQ==
-----END CERTIFICATE-----
