Certificate:
    Data:
        Version: 3 (0x2)
        Serial Number: 17 (0x11)
        Signature Algorithm: md5WithRSAEncryption
        Issuer: C=BE, ST=Vlaams-Brabant, L=Leuven, O=AUSY, O=not used, OU=Demo CA project, CN=Project1CA
        Validity
            Not Before: May  2 12:20:17 2014 GMT
            Not After : May  2 12:20:17 2015 GMT
        Subject: C=BE, ST=Brussels, L=Brussels, O=OLAF, OU=D.4 AFIS, CN=testing9/emailAddress=user@organisation.com
        Subject Public Key Info:
            Public Key Algorithm: rsaEncryption
            RSA Public Key: (2048 bit)
                Modulus (2048 bit):
                    00:c5:31:cb:6d:76:46:9e:55:9c:43:60:b0:51:6b:
                    05:cb:28:c5:e2:ec:14:d4:d4:89:29:15:2b:d3:32:
                    58:f7:0c:28:19:fa:47:5e:45:39:c7:4f:bf:09:a8:
                    c9:b5:90:30:4e:2f:57:a2:f3:eb:d8:8c:92:12:51:
                    b6:02:92:43:d9:e4:82:a2:6a:f7:cd:1a:d6:bf:72:
                    74:62:cc:a8:29:4b:bd:a8:77:ae:a5:15:c2:30:36:
                    81:02:df:95:ff:b7:9c:08:80:37:3b:5f:4b:5a:c3:
                    32:ab:1a:21:41:6f:b1:da:f1:33:f6:10:cb:15:63:
                    ba:7b:a2:99:6e:54:7d:29:c1:82:a4:da:e6:e3:2a:
                    29:ef:c5:c8:2d:84:2a:47:b2:fa:8d:77:d9:32:60:
                    f2:c8:74:de:a5:30:ef:d8:cf:da:ba:1e:71:49:9b:
                    57:05:7c:82:56:de:ff:1b:68:4d:75:c5:a6:b1:09:
                    78:18:de:c5:13:9b:60:c7:93:2b:5e:d0:c5:86:41:
                    40:d9:a6:22:57:2f:30:be:ae:c3:66:63:7c:23:68:
                    a3:7c:76:0b:fb:a1:47:f6:00:97:75:22:2c:f3:92:
                    76:3e:33:19:f2:29:4f:20:32:24:e7:fa:6e:96:41:
                    3d:56:f2:78:e9:4e:71:76:fc:6c:b0:f0:93:90:c0:
                    b5:73
                Exponent: 65537 (0x10001)
        X509v3 extensions:
            X509v3 Basic Constraints: 
                CA:FALSE
            Netscape Cert Type: 
                SSL Client, S/MIME
            Netscape Comment: 
                OpenSSL Generated Client Certificate
            X509v3 Subject Key Identifier: 
                93:5B:51:F6:F1:95:A5:69:E1:83:4B:67:CF:AF:65:33:FE:72:FE:06
            X509v3 Authority Key Identifier: 
                keyid:CE:9B:8C:9B:C8:59:66:42:49:1A:B4:F8:35:1B:9D:7F:D4:BC:90:75
                DirName:/C=BE/ST=Vlaams-Brabant/L=Leuven/O=AUSY/O=not used/OU=Demo CA project/CN=RootCA
                serial:01

    Signature Algorithm: md5WithRSAEncryption
        67:1a:1c:ca:bd:0c:a5:2d:2a:18:22:2d:57:23:fa:e4:2f:2f:
        db:5f:b1:90:c4:a9:be:22:02:9f:0d:94:bf:16:b1:83:e1:57:
        e8:00:ca:29:45:f5:f6:66:c9:2f:64:93:b8:dc:27:d0:51:8d:
        99:81:5a:c9:7b:75:9c:10:7d:b3:e3:36:9b:71:aa:0e:6f:5c:
        92:00:29:cb:f9:45:d1:5d:82:7f:eb:6f:07:d3:ae:79:4b:e2:
        c6:e1:0f:43:84:29:ab:0e:7f:2a:8f:7c:b4:5f:d7:a6:52:dc:
        80:45:d7:21:89:f9:bf:f2:16:ea:12:38:39:d9:16:05:57:51:
        55:03:58:ff:10:d2:d9:fd:a7:a0:89:a6:02:6a:b9:50:f3:75:
        ad:d2:06:2d:9c:80:54:14:77:38:ef:2a:4d:e2:8d:74:41:9b:
        b1:dd:be:20:5c:08:b6:41:69:43:65:68:d2:60:8a:6a:52:b2:
        8a:fd:83:eb:7a:76:9f:5f:0a:95:c7:4c:2e:4c:b8:05:90:20:
        91:a1:69:fc:fb:e6:f1:69:71:7d:18:2d:ef:a4:22:90:b3:35:
        67:d4:ee:37:03:91:6b:68:31:81:01:19:c5:b2:b2:5e:6b:59:
        d6:9a:da:12:97:84:f4:83:77:36:54:19:8e:20:e0:16:cc:dd:
        71:aa:71:ff
-----BEGIN CERTIFICATE-----
MIIEvzCCA6egAwIBAgIBETANBgkqhkiG9w0BAQQFADCBiDELMAkGA1UEBhMCQkUx
FzAVBgNVBAgTDlZsYWFtcy1CcmFiYW50MQ8wDQYDVQQHEwZMZXV2ZW4xDTALBgNV
BAoTBEFVU1kxETAPBgNVBAoTCG5vdCB1c2VkMRgwFgYDVQQLEw9EZW1vIENBIHBy
b2plY3QxEzARBgNVBAMTClByb2plY3QxQ0EwHhcNMTQwNTAyMTIyMDE3WhcNMTUw
NTAyMTIyMDE3WjCBjjELMAkGA1UEBhMCQkUxETAPBgNVBAgTCEJydXNzZWxzMREw
DwYDVQQHEwhCcnVzc2VsczENMAsGA1UEChMET0xBRjERMA8GA1UECxMIRC40IEFG
SVMxETAPBgNVBAMTCHRlc3Rpbmc5MSQwIgYJKoZIhvcNAQkBFhV1c2VyQG9yZ2Fu
aXNhdGlvbi5jb20wggEiMA0GCSqGSIb3DQEBAQUAA4IBDwAwggEKAoIBAQDFMctt
dkaeVZxDYLBRawXLKMXi7BTU1IkpFSvTMlj3DCgZ+kdeRTnHT78JqMm1kDBOL1ei
8+vYjJISUbYCkkPZ5IKiavfNGta/cnRizKgpS72od66lFcIwNoEC35X/t5wIgDc7
X0tawzKrGiFBb7Ha8TP2EMsVY7p7opluVH0pwYKk2ubjKinvxcgthCpHsvqNd9ky
YPLIdN6lMO/Yz9q6HnFJm1cFfIJW3v8baE11xaaxCXgY3sUTm2DHkyte0MWGQUDZ
piJXLzC+rsNmY3wjaKN8dgv7oUf2AJd1IizzknY+MxnyKU8gMiTn+m6WQT1W8njp
TnF2/Gyw8JOQwLVzAgMBAAGjggEqMIIBJjAJBgNVHRMEAjAAMBEGCWCGSAGG+EIB
AQQEAwIFoDAzBglghkgBhvhCAQ0EJhYkT3BlblNTTCBHZW5lcmF0ZWQgQ2xpZW50
IENlcnRpZmljYXRlMB0GA1UdDgQWBBSTW1H28ZWlaeGDS2fPr2Uz/nL+BjCBsQYD
VR0jBIGpMIGmgBTOm4ybyFlmQkkatPg1G51/1LyQdaGBiqSBhzCBhDELMAkGA1UE
BhMCQkUxFzAVBgNVBAgTDlZsYWFtcy1CcmFiYW50MQ8wDQYDVQQHEwZMZXV2ZW4x
DTALBgNVBAoTBEFVU1kxETAPBgNVBAoTCG5vdCB1c2VkMRgwFgYDVQQLEw9EZW1v
IENBIHByb2plY3QxDzANBgNVBAMTBlJvb3RDQYIBATANBgkqhkiG9w0BAQQFAAOC
AQEAZxocyr0MpS0qGCItVyP65C8v21+xkMSpviICnw2Uvxaxg+FX6ADKKUX19mbJ
L2STuNwn0FGNmYFayXt1nBB9s+M2m3GqDm9ckgApy/lF0V2Cf+tvB9OueUvixuEP
Q4Qpqw5/Ko98tF/XplLcgEXXIYn5v/IW6hI4OdkWBVdRVQNY/xDS2f2noImmAmq5
UPN1rdIGLZyAVBR3OO8qTeKNdEGbsd2+IFwItkFpQ2Vo0mCKalKyiv2D63p2n18K
lcdMLky4BZAgkaFp/Pvm8WlxfRgt76QikLM1Z9TuNwORa2gxgQEZxbKyXmtZ1pra
EpeE9IN3NlQZjiDgFszdcapx/w==
-----END CERTIFICATE-----
