Certificate:
    Data:
        Version: 3 (0x2)
        Serial Number: 19 (0x13)
        Signature Algorithm: md5WithRSAEncryption
        Issuer: C=BE, ST=Vlaams-Brabant, L=Leuven, O=AUSY, O=not used, OU=Demo CA project, CN=Project1CA
        Validity
            Not Before: May  2 13:01:36 2014 GMT
            Not After : May  2 13:01:36 2015 GMT
        Subject: C=BE, ST=Brussels, L=Brussels, O=OLAF, OU=D.4 AFIS, CN=testing16/emailAddress=user@organisation.com
        Subject Public Key Info:
            Public Key Algorithm: rsaEncryption
            RSA Public Key: (2048 bit)
                Modulus (2048 bit):
                    00:f0:8a:93:46:e0:05:85:76:1d:f2:0d:8c:5f:24:
                    5a:72:f0:91:3a:4a:0d:12:95:76:2b:62:9a:45:9e:
                    c7:e8:4b:1b:21:34:c5:36:01:19:20:bc:5d:f0:47:
                    94:cd:c5:52:73:81:b5:0c:9e:81:de:ae:86:a9:35:
                    af:fc:66:3b:72:3f:4c:04:34:30:80:ab:f7:32:18:
                    00:00:88:86:64:a8:13:a2:d1:e5:e0:6b:4e:84:f7:
                    5d:ff:2a:ae:07:a2:e2:ab:81:0f:4a:d0:1e:77:df:
                    91:83:6e:a1:bc:9b:6f:ad:ce:32:21:0d:1d:72:9b:
                    f3:eb:03:93:fd:00:14:85:5d:43:3b:36:c9:df:bd:
                    5f:af:51:ea:5f:a0:08:48:af:e0:5f:55:94:3c:0d:
                    a8:0c:23:15:28:7d:cf:c2:ee:05:44:77:c9:0c:70:
                    91:99:66:cf:8e:5c:bd:91:86:ad:fd:54:db:8e:6a:
                    1c:48:03:ec:74:6e:ff:9d:25:e0:85:62:bb:9a:d4:
                    9b:5c:c3:7e:04:cb:8a:f8:24:d3:11:82:d9:9d:97:
                    46:74:a8:74:ba:81:e0:29:a9:e2:7b:e7:b2:29:d1:
                    d7:05:43:bf:0a:37:ff:f8:cf:0a:0a:b4:5f:84:ec:
                    94:a9:b4:0b:ea:0a:b3:57:7a:41:c1:dc:e9:3a:25:
                    4b:1b
                Exponent: 65537 (0x10001)
        X509v3 extensions:
            X509v3 Basic Constraints: 
                CA:FALSE
            Netscape Cert Type: 
                SSL Client, S/MIME
            Netscape Comment: 
                OpenSSL Generated Client Certificate
            X509v3 Subject Key Identifier: 
                54:E4:95:4D:CE:F0:80:AE:B6:BA:E6:0F:52:4E:C7:C0:E9:F9:6B:93
            X509v3 Authority Key Identifier: 
                keyid:CE:9B:8C:9B:C8:59:66:42:49:1A:B4:F8:35:1B:9D:7F:D4:BC:90:75
                DirName:/C=BE/ST=Vlaams-Brabant/L=Leuven/O=AUSY/O=not used/OU=Demo CA project/CN=RootCA
                serial:01

    Signature Algorithm: md5WithRSAEncryption
        18:09:64:13:37:30:72:ad:cf:5f:29:11:81:db:c2:ac:97:ba:
        8c:48:0c:f4:9f:1a:e2:4d:d0:d8:f7:68:4a:7a:d4:d1:dc:70:
        cb:3e:34:d0:57:a3:7d:a3:be:40:b2:99:e6:55:39:34:de:85:
        dd:84:5d:5e:13:1e:ee:1a:99:35:45:9f:18:48:4c:16:3b:25:
        d7:90:a9:03:40:31:2f:06:37:e3:da:ef:ff:b2:ca:87:48:54:
        db:d3:13:ec:75:0a:22:f4:6d:60:b1:1a:e9:83:e9:70:00:3d:
        bd:46:6c:41:9a:36:e9:69:7f:31:4c:e3:9f:73:82:f2:38:13:
        1a:50:ea:b5:7b:c4:b6:b9:7c:b2:fc:11:c2:64:06:30:7b:96:
        8f:c8:12:19:f0:13:f1:c4:63:c9:ed:96:26:d7:03:cb:22:17:
        c6:02:51:5f:43:79:39:a2:97:6e:f3:2f:2b:13:fa:b3:55:2a:
        4a:2c:fe:69:ed:c2:06:46:f3:49:d0:75:3e:c6:85:65:83:ea:
        c2:3b:98:d8:fa:c3:df:4f:c5:a5:f1:c6:ae:31:6e:a5:bd:42:
        ab:0a:64:2d:2d:de:33:bd:c4:60:27:c3:0a:2e:08:75:84:97:
        7b:ea:24:77:a4:09:c3:b5:1b:ac:98:46:89:8b:b5:c3:c0:75:
        7e:df:ca:2f
-----BEGIN CERTIFICATE-----
MIIEwDCCA6igAwIBAgIBEzANBgkqhkiG9w0BAQQFADCBiDELMAkGA1UEBhMCQkUx
FzAVBgNVBAgTDlZsYWFtcy1CcmFiYW50MQ8wDQYDVQQHEwZMZXV2ZW4xDTALBgNV
BAoTBEFVU1kxETAPBgNVBAoTCG5vdCB1c2VkMRgwFgYDVQQLEw9EZW1vIENBIHBy
b2plY3QxEzARBgNVBAMTClByb2plY3QxQ0EwHhcNMTQwNTAyMTMwMTM2WhcNMTUw
NTAyMTMwMTM2WjCBjzELMAkGA1UEBhMCQkUxETAPBgNVBAgTCEJydXNzZWxzMREw
DwYDVQQHEwhCcnVzc2VsczENMAsGA1UEChMET0xBRjERMA8GA1UECxMIRC40IEFG
SVMxEjAQBgNVBAMTCXRlc3RpbmcxNjEkMCIGCSqGSIb3DQEJARYVdXNlckBvcmdh
bmlzYXRpb24uY29tMIIBIjANBgkqhkiG9w0BAQEFAAOCAQ8AMIIBCgKCAQEA8IqT
RuAFhXYd8g2MXyRacvCROkoNEpV2K2KaRZ7H6EsbITTFNgEZILxd8EeUzcVSc4G1
DJ6B3q6GqTWv/GY7cj9MBDQwgKv3MhgAAIiGZKgTotHl4GtOhPdd/yquB6Liq4EP
StAed9+Rg26hvJtvrc4yIQ0dcpvz6wOT/QAUhV1DOzbJ371fr1HqX6AISK/gX1WU
PA2oDCMVKH3Pwu4FRHfJDHCRmWbPjly9kYat/VTbjmocSAPsdG7/nSXghWK7mtSb
XMN+BMuK+CTTEYLZnZdGdKh0uoHgKanie+eyKdHXBUO/Cjf/+M8KCrRfhOyUqbQL
6gqzV3pBwdzpOiVLGwIDAQABo4IBKjCCASYwCQYDVR0TBAIwADARBglghkgBhvhC
AQEEBAMCBaAwMwYJYIZIAYb4QgENBCYWJE9wZW5TU0wgR2VuZXJhdGVkIENsaWVu
dCBDZXJ0aWZpY2F0ZTAdBgNVHQ4EFgQUVOSVTc7wgK62uuYPUk7HwOn5a5MwgbEG
A1UdIwSBqTCBpoAUzpuMm8hZZkJJGrT4NRudf9S8kHWhgYqkgYcwgYQxCzAJBgNV
BAYTAkJFMRcwFQYDVQQIEw5WbGFhbXMtQnJhYmFudDEPMA0GA1UEBxMGTGV1dmVu
MQ0wCwYDVQQKEwRBVVNZMREwDwYDVQQKEwhub3QgdXNlZDEYMBYGA1UECxMPRGVt
byBDQSBwcm9qZWN0MQ8wDQYDVQQDEwZSb290Q0GCAQEwDQYJKoZIhvcNAQEEBQAD
ggEBABgJZBM3MHKtz18pEYHbwqyXuoxIDPSfGuJN0Nj3aEp61NHccMs+NNBXo32j
vkCymeZVOTTehd2EXV4THu4amTVFnxhITBY7JdeQqQNAMS8GN+Pa7/+yyodIVNvT
E+x1CiL0bWCxGumD6XAAPb1GbEGaNulpfzFM459zgvI4ExpQ6rV7xLa5fLL8EcJk
BjB7lo/IEhnwE/HEY8ntlibXA8siF8YCUV9DeTmil27zLysT+rNVKkos/mntwgZG
80nQdT7GhWWD6sI7mNj6w99PxaXxxq4xbqW9QqsKZC0t3jO9xGAnwwouCHWEl3vq
JHekCcO1G6yYRomLtcPAdX7fyi8=
-----END CERTIFICATE-----
