Certificate:
    Data:
        Version: 3 (0x2)
        Serial Number: 22 (0x16)
        Signature Algorithm: md5WithRSAEncryption
        Issuer: C=BE, ST=Vlaams-Brabant, L=Leuven, O=AUSY, O=not used, OU=Demo CA project, CN=Project1CA
        Validity
            Not Before: May  2 15:13:16 2014 GMT
            Not After : May  2 15:13:16 2015 GMT
        Subject: C=BE, ST=Vlaams-Brabant, L=Leuven, O=AUSY, OU=Demo CA project, CN=Testing30/emailAddress=user@organisation.com
        Subject Public Key Info:
            Public Key Algorithm: rsaEncryption
            RSA Public Key: (2048 bit)
                Modulus (2048 bit):
                    00:9b:d3:d1:e9:cc:ab:6f:08:07:32:b6:a4:57:2a:
                    e8:78:3d:a0:7b:d1:44:8b:1b:97:84:c2:4e:19:64:
                    f5:fb:d8:70:8d:0a:92:97:aa:60:1e:d0:f3:83:d6:
                    ac:b3:73:9c:04:73:fa:79:00:e0:e8:95:37:81:b6:
                    cc:2a:47:b9:98:a7:8d:bd:00:fe:61:d6:ee:4f:29:
                    2f:5c:26:c9:47:9b:3c:bb:41:ac:53:d0:3f:07:21:
                    12:05:ec:7d:e8:37:6b:0b:f3:6c:b7:d9:d6:d3:51:
                    a2:0b:26:f2:34:08:f0:cf:ea:3e:d2:c8:b6:60:bb:
                    10:f7:ec:0b:58:f7:d3:01:37:61:bd:ee:b8:28:81:
                    ba:8e:91:e1:58:7d:18:7f:77:0b:1d:3c:96:15:37:
                    6a:b1:d2:1c:64:7a:a9:6b:f8:37:a4:7a:72:a8:06:
                    89:34:0a:62:72:07:f7:97:2b:7d:37:bb:95:12:68:
                    60:05:d8:e7:c4:85:c0:7a:fc:c0:85:b7:3a:a6:7b:
                    51:d1:3b:02:06:bc:f8:a9:91:37:2e:cb:08:d9:ed:
                    1a:24:3c:e6:17:cc:1e:10:b6:42:06:91:f5:4e:54:
                    03:be:41:5b:65:c0:f9:b7:1f:ae:49:f0:d6:2b:ba:
                    69:e7:e7:fd:63:e7:16:de:06:bf:e2:47:41:eb:b4:
                    9c:67
                Exponent: 65537 (0x10001)
        X509v3 extensions:
            X509v3 Basic Constraints: 
                CA:FALSE
            Netscape Cert Type: 
                SSL Client, S/MIME
            Netscape Comment: 
                OpenSSL Generated Client Certificate
            X509v3 Subject Key Identifier: 
                47:A0:70:00:59:45:B9:9F:C9:6E:4C:E4:5E:B3:82:1D:A1:D8:6A:15
            X509v3 Authority Key Identifier: 
                keyid:CE:9B:8C:9B:C8:59:66:42:49:1A:B4:F8:35:1B:9D:7F:D4:BC:90:75
                DirName:/C=BE/ST=Vlaams-Brabant/L=Leuven/O=AUSY/O=not used/OU=Demo CA project/CN=RootCA
                serial:01

    Signature Algorithm: md5WithRSAEncryption
        48:f9:18:41:68:be:49:09:20:a5:ee:1f:5e:62:c2:ad:14:f4:
        f0:cb:d3:d0:c1:b8:77:f2:5a:b0:d4:b7:75:d0:b2:b1:bd:79:
        72:98:9f:b4:7c:a7:e4:bf:ad:e3:cc:76:d3:69:da:96:cc:b5:
        3b:17:fe:ef:ef:6a:7d:98:2b:03:24:1c:5c:b1:c1:ed:83:ea:
        19:6a:62:a8:53:43:01:85:6d:9b:7f:bd:7d:da:2a:e0:40:3d:
        00:70:b7:78:e0:34:58:30:b3:16:df:f8:33:a5:59:ca:f8:0d:
        02:26:cb:6d:00:bc:c8:84:af:fa:b5:07:46:7b:85:55:75:89:
        6d:29:21:db:70:36:7f:86:9e:4b:f3:0d:ab:c6:8f:2f:ca:70:
        5c:8e:38:0b:21:c3:3f:b6:c1:9e:5f:2a:db:79:c4:41:b2:a1:
        4b:53:3d:9b:1d:e2:73:d5:05:a2:88:e0:ce:15:a9:f8:af:64:
        a8:17:20:a0:a3:a9:ca:b2:cd:35:a2:73:0b:f9:0d:5d:40:b8:
        38:af:da:c9:9a:09:ff:b2:3f:2a:58:d4:72:47:0d:78:86:ef:
        20:14:b2:73:c0:18:e2:78:a8:a0:f5:26:51:c6:03:24:39:73:
        37:3b:3e:be:4b:5a:4a:51:a1:a2:7f:e7:5a:48:53:60:66:62:
        b4:71:08:86
-----BEGIN CERTIFICATE-----
MIIEyzCCA7OgAwIBAgIBFjANBgkqhkiG9w0BAQQFADCBiDELMAkGA1UEBhMCQkUx
FzAVBgNVBAgTDlZsYWFtcy1CcmFiYW50MQ8wDQYDVQQHEwZMZXV2ZW4xDTALBgNV
BAoTBEFVU1kxETAPBgNVBAoTCG5vdCB1c2VkMRgwFgYDVQQLEw9EZW1vIENBIHBy
b2plY3QxEzARBgNVBAMTClByb2plY3QxQ0EwHhcNMTQwNTAyMTUxMzE2WhcNMTUw
NTAyMTUxMzE2WjCBmjELMAkGA1UEBhMCQkUxFzAVBgNVBAgTDlZsYWFtcy1CcmFi
YW50MQ8wDQYDVQQHEwZMZXV2ZW4xDTALBgNVBAoTBEFVU1kxGDAWBgNVBAsTD0Rl
bW8gQ0EgcHJvamVjdDESMBAGA1UEAxMJVGVzdGluZzMwMSQwIgYJKoZIhvcNAQkB
FhV1c2VyQG9yZ2FuaXNhdGlvbi5jb20wggEiMA0GCSqGSIb3DQEBAQUAA4IBDwAw
ggEKAoIBAQCb09HpzKtvCAcytqRXKuh4PaB70USLG5eEwk4ZZPX72HCNCpKXqmAe
0POD1qyzc5wEc/p5AODolTeBtswqR7mYp429AP5h1u5PKS9cJslHmzy7QaxT0D8H
IRIF7H3oN2sL82y32dbTUaILJvI0CPDP6j7SyLZguxD37AtY99MBN2G97rgogbqO
keFYfRh/dwsdPJYVN2qx0hxkeqlr+DekenKoBok0CmJyB/eXK303u5USaGAF2OfE
hcB6/MCFtzqme1HROwIGvPipkTcuywjZ7RokPOYXzB4QtkIGkfVOVAO+QVtlwPm3
H65J8NYrumnn5/1j5xbeBr/iR0HrtJxnAgMBAAGjggEqMIIBJjAJBgNVHRMEAjAA
MBEGCWCGSAGG+EIBAQQEAwIFoDAzBglghkgBhvhCAQ0EJhYkT3BlblNTTCBHZW5l
cmF0ZWQgQ2xpZW50IENlcnRpZmljYXRlMB0GA1UdDgQWBBRHoHAAWUW5n8luTORe
s4IdodhqFTCBsQYDVR0jBIGpMIGmgBTOm4ybyFlmQkkatPg1G51/1LyQdaGBiqSB
hzCBhDELMAkGA1UEBhMCQkUxFzAVBgNVBAgTDlZsYWFtcy1CcmFiYW50MQ8wDQYD
VQQHEwZMZXV2ZW4xDTALBgNVBAoTBEFVU1kxETAPBgNVBAoTCG5vdCB1c2VkMRgw
FgYDVQQLEw9EZW1vIENBIHByb2plY3QxDzANBgNVBAMTBlJvb3RDQYIBATANBgkq
hkiG9w0BAQQFAAOCAQEASPkYQWi+SQkgpe4fXmLCrRT08MvT0MG4d/JasNS3ddCy
sb15cpiftHyn5L+t48x202nalsy1Oxf+7+9qfZgrAyQcXLHB7YPqGWpiqFNDAYVt
m3+9fdoq4EA9AHC3eOA0WDCzFt/4M6VZyvgNAibLbQC8yISv+rUHRnuFVXWJbSkh
23A2f4aeS/MNq8aPL8pwXI44CyHDP7bBnl8q23nEQbKhS1M9mx3ic9UFoojgzhWp
+K9kqBcgoKOpyrLNNaJzC/kNXUC4OK/ayZoJ/7I/KljUckcNeIbvIBSyc8AY4nio
oPUmUcYDJDlzNzs+vktaSlGhon/nWkhTYGZitHEIhg==
-----END CERTIFICATE-----
