Certificate:
    Data:
        Version: 3 (0x2)
        Serial Number: 2 (0x2)
        Signature Algorithm: md5WithRSAEncryption
        Issuer: C=BE, ST=Vlaams-Brabant, L=Leuven, O=AUSY, O=not used, OU=Demo CA project, CN=RootCA
        Validity
            Not Before: Feb 27 13:10:52 2014 GMT
            Not After : Feb 25 13:10:52 2024 GMT
        Subject: C=BE, ST=Vlaams-Brabant, L=Leuven, O=AUSY, O=not used, OU=Demo CA project, CN=Project2CA
        Subject Public Key Info:
            Public Key Algorithm: rsaEncryption
            RSA Public Key: (2048 bit)
                Modulus (2048 bit):
                    00:b1:40:4d:9a:25:6f:57:1c:22:22:49:b1:66:c0:
                    37:0b:09:09:4a:c0:b5:ac:7f:0e:73:32:63:2a:9c:
                    04:46:8d:b4:b2:39:67:fb:f6:88:1a:55:a4:e6:43:
                    60:2a:0c:13:5d:c4:d5:e7:fc:cc:8d:95:c5:6e:a8:
                    30:93:30:0b:e5:fa:38:f5:85:fb:1c:32:8d:00:f1:
                    2f:57:06:b4:52:73:06:40:89:88:6f:47:31:38:09:
                    06:a6:83:f2:5b:e8:69:94:cb:e1:ea:2d:e4:9a:c4:
                    d2:05:a5:ba:ff:22:3a:cd:0f:da:83:4e:2c:af:23:
                    15:ac:cb:63:52:7d:fa:ab:b5:74:3b:22:92:a4:14:
                    cb:71:1e:a9:38:de:32:96:d6:f2:7d:9d:46:ad:60:
                    54:7d:4f:5b:b3:71:43:2b:1b:83:ea:62:21:57:22:
                    7b:32:41:b9:f0:53:8b:45:77:b6:cc:e6:c0:b5:ac:
                    cf:2d:90:96:25:a6:b8:af:30:cc:e7:b5:b1:9f:0c:
                    39:e6:e9:78:c9:ea:4d:42:21:04:51:98:6f:f0:29:
                    59:34:2a:01:aa:63:fc:67:06:62:eb:7c:c2:5e:58:
                    17:7a:e1:a6:2b:c4:ce:3a:55:ca:d0:de:26:ba:5d:
                    15:00:a0:4c:b0:7a:00:22:aa:15:70:2d:6a:c7:01:
                    a7:09
                Exponent: 65537 (0x10001)
        X509v3 extensions:
            X509v3 Subject Key Identifier: 
                18:E4:07:B2:F8:76:83:FF:F3:05:B6:72:63:0A:1D:1D:B2:79:53:B5
            X509v3 Authority Key Identifier: 
                keyid:E8:0E:D6:77:13:DB:3E:68:89:67:85:DA:4B:72:9A:67:FF:FE:D5:83
                DirName:/C=BE/ST=Vlaams-Brabant/L=Leuven/O=AUSY/O=not used/OU=Demo CA project/CN=RootCA
                serial:E2:E4:8B:E0:DB:AE:C0:84

            X509v3 Basic Constraints: 
                CA:TRUE
    Signature Algorithm: md5WithRSAEncryption
        62:cb:77:27:ad:0a:5c:48:03:7c:aa:e5:3c:68:3c:9e:5f:6a:
        06:ac:e7:cb:80:d3:19:66:67:1f:69:78:af:cf:a5:5e:85:94:
        e7:d9:0a:35:44:07:5b:fd:10:dc:92:62:e4:13:3a:91:1f:56:
        c8:ab:21:24:31:f2:ab:75:c1:b5:aa:82:8a:b6:cc:f4:97:cd:
        b7:8a:58:50:d8:f6:ab:67:91:f8:05:6d:5e:9a:aa:50:1e:da:
        7f:62:f6:c9:26:52:dc:64:fb:ce:c9:24:5d:36:4d:0c:0d:37:
        8b:11:a5:b4:d7:84:3c:67:b4:cc:08:7f:6a:2d:d1:31:0c:da:
        af:b0:bd:b4:af:3f:f4:74:7a:3b:72:9b:b1:86:ee:a1:ea:05:
        4d:aa:dc:60:89:29:99:25:2d:bf:96:07:8f:f8:3a:da:13:1d:
        25:fe:98:53:5d:dc:74:13:c5:8b:ea:65:9c:ab:74:b1:81:2f:
        23:dd:cf:b6:7a:38:18:7f:52:18:cb:4f:f7:ff:64:cd:60:c9:
        0d:34:4d:0a:91:2d:d3:1c:92:12:99:c9:c9:6e:89:73:1b:d2:
        a7:b7:ff:0a:a4:b4:d3:49:1d:8a:6e:b8:bb:5b:cf:ef:98:26:
        35:b2:d1:c2:93:f9:f4:6f:96:25:4a:64:89:d0:eb:d2:37:a3:
        9a:e5:da:71
-----BEGIN CERTIFICATE-----
MIIEdjCCA16gAwIBAgIBAjANBgkqhkiG9w0BAQQFADCBhDELMAkGA1UEBhMCQkUx
FzAVBgNVBAgTDlZsYWFtcy1CcmFiYW50MQ8wDQYDVQQHEwZMZXV2ZW4xDTALBgNV
BAoTBEFVU1kxETAPBgNVBAoTCG5vdCB1c2VkMRgwFgYDVQQLEw9EZW1vIENBIHBy
b2plY3QxDzANBgNVBAMTBlJvb3RDQTAeFw0xNDAyMjcxMzEwNTJaFw0yNDAyMjUx
MzEwNTJaMIGIMQswCQYDVQQGEwJCRTEXMBUGA1UECBMOVmxhYW1zLUJyYWJhbnQx
DzANBgNVBAcTBkxldXZlbjENMAsGA1UEChMEQVVTWTERMA8GA1UEChMIbm90IHVz
ZWQxGDAWBgNVBAsTD0RlbW8gQ0EgcHJvamVjdDETMBEGA1UEAxMKUHJvamVjdDJD
QTCCASIwDQYJKoZIhvcNAQEBBQADggEPADCCAQoCggEBALFATZolb1ccIiJJsWbA
NwsJCUrAtax/DnMyYyqcBEaNtLI5Z/v2iBpVpOZDYCoME13E1ef8zI2VxW6oMJMw
C+X6OPWF+xwyjQDxL1cGtFJzBkCJiG9HMTgJBqaD8lvoaZTL4eot5JrE0gWluv8i
Os0P2oNOLK8jFazLY1J9+qu1dDsikqQUy3EeqTjeMpbW8n2dRq1gVH1PW7NxQysb
g+piIVciezJBufBTi0V3tszmwLWszy2QliWmuK8wzOe1sZ8MOebpeMnqTUIhBFGY
b/ApWTQqAapj/GcGYut8wl5YF3rhpivEzjpVytDeJrpdFQCgTLB6ACKqFXAtascB
pwkCAwEAAaOB7DCB6TAdBgNVHQ4EFgQUGOQHsvh2g//zBbZyYwodHbJ5U7UwgbkG
A1UdIwSBsTCBroAU6A7WdxPbPmiJZ4XaS3KaZ//+1YOhgYqkgYcwgYQxCzAJBgNV
BAYTAkJFMRcwFQYDVQQIEw5WbGFhbXMtQnJhYmFudDEPMA0GA1UEBxMGTGV1dmVu
MQ0wCwYDVQQKEwRBVVNZMREwDwYDVQQKEwhub3QgdXNlZDEYMBYGA1UECxMPRGVt
byBDQSBwcm9qZWN0MQ8wDQYDVQQDEwZSb290Q0GCCQDi5Ivg267AhDAMBgNVHRME
BTADAQH/MA0GCSqGSIb3DQEBBAUAA4IBAQBiy3cnrQpcSAN8quU8aDyeX2oGrOfL
gNMZZmcfaXivz6VehZTn2Qo1RAdb/RDckmLkEzqRH1bIqyEkMfKrdcG1qoKKtsz0
l823ilhQ2ParZ5H4BW1emqpQHtp/YvbJJlLcZPvOySRdNk0MDTeLEaW014Q8Z7TM
CH9qLdExDNqvsL20rz/0dHo7cpuxhu6h6gVNqtxgiSmZJS2/lgeP+DraEx0l/phT
Xdx0E8WL6mWcq3SxgS8j3c+2ejgYf1IYy0/3/2TNYMkNNE0KkS3THJISmcnJbolz
G9Knt/8KpLTTSR2Kbri7W8/vmCY1stHCk/n0b5YlSmSJ0OvSN6Oa5dpx
-----END CERTIFICATE-----
