-----BEGIN CERTIFICATE-----
MIIEejCCA2KgAwIBAgIJAOLki+DbrsCEMA0GCSqGSIb3DQEBBQUAMIGEMQswCQYD
VQQGEwJCRTEXMBUGA1UECBMOVmxhYW1zLUJyYWJhbnQxDzANBgNVBAcTBkxldXZl
bjENMAsGA1UEChMEQVVTWTERMA8GA1UEChMIbm90IHVzZWQxGDAWBgNVBAsTD0Rl
bW8gQ0EgcHJvamVjdDEPMA0GA1UEAxMGUm9vdENBMB4XDTE0MDIyNzEyNTI0NloX
DTI0MDIyNTEyNTI0NlowgYQxCzAJBgNVBAYTAkJFMRcwFQYDVQQIEw5WbGFhbXMt
QnJhYmFudDEPMA0GA1UEBxMGTGV1dmVuMQ0wCwYDVQQKEwRBVVNZMREwDwYDVQQK
Ewhub3QgdXNlZDEYMBYGA1UECxMPRGVtbyBDQSBwcm9qZWN0MQ8wDQYDVQQDEwZS
b290Q0EwggEiMA0GCSqGSIb3DQEBAQUAA4IBDwAwggEKAoIBAQCu1RFa/nrbWxj8
5MmggP+eCCQ6jG0PeMxPzaXZRm5Z/XRaC9Lys1Iw83LyIx1m1YNJgbqI3pvimNZD
LIwOU8fQ5E4epJC4z+8c75zORoL7iEhHZARdSb3RgdhM05AeKqKCNAndilN3ZfDk
Bu7eSXNpW2GauS7BVUorwGu8kuSiV3U6pv6FvYUMqA7KemnzwaQc/ddR8Pf4A2v1
yVtbjARSHCXQRLlMiuuQ8FiEYtZoKWsQ01YJ53e7P9aHVmpQnufLsnJnF2sjlHI5
qxTP/2Zmez/N9i6qas/GELQrAF2XiwHXzoopZ1YFpX44SgusmKTNMiB5XUt2vMdy
ativpXwrAgMBAAGjgewwgekwHQYDVR0OBBYEFOgO1ncT2z5oiWeF2ktymmf//tWD
MIG5BgNVHSMEgbEwga6AFOgO1ncT2z5oiWeF2ktymmf//tWDoYGKpIGHMIGEMQsw
CQYDVQQGEwJCRTEXMBUGA1UECBMOVmxhYW1zLUJyYWJhbnQxDzANBgNVBAcTBkxl
dXZlbjENMAsGA1UEChMEQVVTWTERMA8GA1UEChMIbm90IHVzZWQxGDAWBgNVBAsT
D0RlbW8gQ0EgcHJvamVjdDEPMA0GA1UEAxMGUm9vdENBggkA4uSL4NuuwIQwDAYD
VR0TBAUwAwEB/zANBgkqhkiG9w0BAQUFAAOCAQEAA/CRZ7zMUcPxcj5HhUD1hVtc
rZCtRser8f6Kh4uTO8RgOIo2SXl4ywWC+mBure+4iwWgRWbVQ8T+tciW6tJETJjL
F9ochjscFYyAZk7DjQm79U9V3lSPe4nwRa0FYWFMEWWDaqxIg5tJE79jCT59aWvs
1X65V20UV5GeWeFEgacq2Apkp/z85dML7B2s8QRxnR7YpCUO5GwdvYbIve7grsfz
QMZR5Yg7yV8blxpt5+6l4YMiO41gPtySXxruKnORuWmxCdV8Voglz2eiVaEpQu/s
u7MXgXhnP4HwWfrD1FPZLjSft8HrWFGCxP4IF811chFWqXB8WrFZ4stNsljPJA==
-----END CERTIFICATE-----
Certificate:
    Data:
        Version: 3 (0x2)
        Serial Number: 1 (0x1)
        Signature Algorithm: md5WithRSAEncryption
        Issuer: C=BE, ST=Vlaams-Brabant, L=Leuven, O=AUSY, O=not used, OU=Demo CA project, CN=RootCA
        Validity
            Not Before: Feb 27 13:04:26 2014 GMT
            Not After : Feb 25 13:04:26 2024 GMT
        Subject: C=BE, ST=Vlaams-Brabant, L=Leuven, O=AUSY, O=not used, OU=Demo CA project, CN=Project1CA
        Subject Public Key Info:
            Public Key Algorithm: rsaEncryption
            RSA Public Key: (2048 bit)
                Modulus (2048 bit):
                    00:c1:29:ae:27:50:6c:b8:d0:0a:95:4d:a9:cb:7c:
                    05:28:8d:00:6d:af:1c:1c:26:6f:52:ec:2d:da:30:
                    f5:37:a3:67:76:48:9c:57:82:5a:71:58:fa:2a:5b:
                    4d:cd:a7:43:9e:7b:78:a4:41:2e:d1:7c:76:91:bd:
                    1a:35:94:1a:6d:6d:51:0c:aa:d7:32:77:2f:11:95:
                    1a:df:a8:ae:a7:d1:f4:48:4d:3a:b6:99:97:7e:e6:
                    c4:94:4a:7a:49:98:f9:e6:15:a5:e5:8d:6a:01:c0:
                    f6:20:8d:18:8c:da:89:10:4b:a9:91:1a:bc:ef:a5:
                    a5:a3:11:5b:5e:82:83:21:9b:25:d3:31:fc:91:3b:
                    0d:f2:b6:2f:8e:28:6c:9a:07:78:f4:86:89:2c:77:
                    45:c4:b0:98:2c:51:b5:a2:03:c2:1d:1f:91:ed:36:
                    be:d8:9b:12:94:e4:ee:1a:e9:b6:2e:22:ce:3c:f6:
                    89:69:72:7b:9d:97:ae:ea:98:42:68:99:50:f6:bc:
                    99:92:d0:34:76:f7:f0:c1:cc:97:cd:b2:0e:5a:b1:
                    51:59:67:2f:cc:fc:b8:ec:78:83:83:37:af:a4:ed:
                    a2:9f:a3:13:9b:82:0b:f0:d0:bd:39:23:95:49:2f:
                    6a:e0:a9:b9:46:59:07:74:b5:1a:89:44:79:a8:a8:
                    2d:25
                Exponent: 65537 (0x10001)
        X509v3 extensions:
            X509v3 Subject Key Identifier: 
                CE:9B:8C:9B:C8:59:66:42:49:1A:B4:F8:35:1B:9D:7F:D4:BC:90:75
            X509v3 Authority Key Identifier: 
                keyid:E8:0E:D6:77:13:DB:3E:68:89:67:85:DA:4B:72:9A:67:FF:FE:D5:83
                DirName:/C=BE/ST=Vlaams-Brabant/L=Leuven/O=AUSY/O=not used/OU=Demo CA project/CN=RootCA
                serial:E2:E4:8B:E0:DB:AE:C0:84

            X509v3 Basic Constraints: 
                CA:TRUE
    Signature Algorithm: md5WithRSAEncryption
        75:89:e2:a0:77:47:cd:ff:2c:07:77:33:12:23:c7:7c:88:83:
        68:aa:ae:98:0e:05:f7:97:d1:ce:b9:38:9a:a7:34:1d:16:79:
        8f:ae:b3:10:ca:f8:5b:8f:3b:61:7d:ee:b2:eb:90:ec:df:2f:
        f7:c8:ff:a7:75:3d:23:c4:a8:e7:07:df:57:6a:9d:22:d6:0c:
        3d:7b:e2:f7:67:ac:aa:d5:7a:d5:09:15:c6:e6:4b:81:40:a4:
        49:64:6b:79:4b:e4:46:90:52:26:a9:bd:ad:a4:03:43:48:90:
        63:82:e6:9a:f2:73:e5:eb:06:e8:94:c7:bf:4c:d7:92:db:5f:
        60:ce:a3:e4:26:ff:29:35:34:d0:b0:12:56:55:fb:fd:c7:e1:
        d7:c2:a8:1d:c9:79:98:05:a9:86:9f:aa:cb:52:93:50:24:60:
        9e:e3:56:e0:15:50:6f:2f:e6:2d:6c:5d:7a:24:8b:d6:64:cd:
        7b:6d:b9:f4:c0:37:ff:06:1b:46:0a:55:e5:68:72:f1:7e:31:
        ff:00:d5:44:0c:50:13:67:2f:27:c8:0e:d8:9d:0f:21:6b:5a:
        d3:7f:1a:3b:63:12:8f:cd:b5:cc:01:f6:6e:75:16:23:b0:46:
        26:f5:5c:43:18:d0:b7:2a:1c:d9:50:55:9d:78:e5:81:bd:11:
        79:84:44:e7
-----BEGIN CERTIFICATE-----
MIIEdjCCA16gAwIBAgIBATANBgkqhkiG9w0BAQQFADCBhDELMAkGA1UEBhMCQkUx
FzAVBgNVBAgTDlZsYWFtcy1CcmFiYW50MQ8wDQYDVQQHEwZMZXV2ZW4xDTALBgNV
BAoTBEFVU1kxETAPBgNVBAoTCG5vdCB1c2VkMRgwFgYDVQQLEw9EZW1vIENBIHBy
b2plY3QxDzANBgNVBAMTBlJvb3RDQTAeFw0xNDAyMjcxMzA0MjZaFw0yNDAyMjUx
MzA0MjZaMIGIMQswCQYDVQQGEwJCRTEXMBUGA1UECBMOVmxhYW1zLUJyYWJhbnQx
DzANBgNVBAcTBkxldXZlbjENMAsGA1UEChMEQVVTWTERMA8GA1UEChMIbm90IHVz
ZWQxGDAWBgNVBAsTD0RlbW8gQ0EgcHJvamVjdDETMBEGA1UEAxMKUHJvamVjdDFD
QTCCASIwDQYJKoZIhvcNAQEBBQADggEPADCCAQoCggEBAMEpridQbLjQCpVNqct8
BSiNAG2vHBwmb1LsLdow9TejZ3ZInFeCWnFY+ipbTc2nQ557eKRBLtF8dpG9GjWU
Gm1tUQyq1zJ3LxGVGt+orqfR9EhNOraZl37mxJRKekmY+eYVpeWNagHA9iCNGIza
iRBLqZEavO+lpaMRW16CgyGbJdMx/JE7DfK2L44obJoHePSGiSx3RcSwmCxRtaID
wh0fke02vtibEpTk7hrpti4izjz2iWlye52XruqYQmiZUPa8mZLQNHb38MHMl82y
DlqxUVlnL8z8uOx4g4M3r6Ttop+jE5uCC/DQvTkjlUkvauCpuUZZB3S1GolEeaio
LSUCAwEAAaOB7DCB6TAdBgNVHQ4EFgQUzpuMm8hZZkJJGrT4NRudf9S8kHUwgbkG
A1UdIwSBsTCBroAU6A7WdxPbPmiJZ4XaS3KaZ//+1YOhgYqkgYcwgYQxCzAJBgNV
BAYTAkJFMRcwFQYDVQQIEw5WbGFhbXMtQnJhYmFudDEPMA0GA1UEBxMGTGV1dmVu
MQ0wCwYDVQQKEwRBVVNZMREwDwYDVQQKEwhub3QgdXNlZDEYMBYGA1UECxMPRGVt
byBDQSBwcm9qZWN0MQ8wDQYDVQQDEwZSb290Q0GCCQDi5Ivg267AhDAMBgNVHRME
BTADAQH/MA0GCSqGSIb3DQEBBAUAA4IBAQB1ieKgd0fN/ywHdzMSI8d8iINoqq6Y
DgX3l9HOuTiapzQdFnmPrrMQyvhbjzthfe6y65Ds3y/3yP+ndT0jxKjnB99Xap0i
1gw9e+L3Z6yq1XrVCRXG5kuBQKRJZGt5S+RGkFImqb2tpANDSJBjguaa8nPl6wbo
lMe/TNeS219gzqPkJv8pNTTQsBJWVfv9x+HXwqgdyXmYBamGn6rLUpNQJGCe41bg
FVBvL+YtbF16JIvWZM17bbn0wDf/BhtGClXlaHLxfjH/ANVEDFATZy8nyA7YnQ8h
a1rTfxo7YxKPzbXMAfZudRYjsEYm9VxDGNC3KhzZUFWdeOWBvRF5hETn
-----END CERTIFICATE-----
Certificate:
    Data:
        Version: 3 (0x2)
        Serial Number: 2 (0x2)
        Signature Algorithm: md5WithRSAEncryption
        Issuer: C=BE, ST=Vlaams-Brabant, L=Leuven, O=AUSY, O=not used, OU=Demo CA project, CN=RootCA
        Validity
            Not Before: Feb 27 13:10:52 2014 GMT
            Not After : Feb 25 13:10:52 2024 GMT
        Subject: C=BE, ST=Vlaams-Brabant, L=Leuven, O=AUSY, O=not used, OU=Demo CA project, CN=Project2CA
        Subject Public Key Info:
            Public Key Algorithm: rsaEncryption
            RSA Public Key: (2048 bit)
                Modulus (2048 bit):
                    00:b1:40:4d:9a:25:6f:57:1c:22:22:49:b1:66:c0:
                    37:0b:09:09:4a:c0:b5:ac:7f:0e:73:32:63:2a:9c:
                    04:46:8d:b4:b2:39:67:fb:f6:88:1a:55:a4:e6:43:
                    60:2a:0c:13:5d:c4:d5:e7:fc:cc:8d:95:c5:6e:a8:
                    30:93:30:0b:e5:fa:38:f5:85:fb:1c:32:8d:00:f1:
                    2f:57:06:b4:52:73:06:40:89:88:6f:47:31:38:09:
                    06:a6:83:f2:5b:e8:69:94:cb:e1:ea:2d:e4:9a:c4:
                    d2:05:a5:ba:ff:22:3a:cd:0f:da:83:4e:2c:af:23:
                    15:ac:cb:63:52:7d:fa:ab:b5:74:3b:22:92:a4:14:
                    cb:71:1e:a9:38:de:32:96:d6:f2:7d:9d:46:ad:60:
                    54:7d:4f:5b:b3:71:43:2b:1b:83:ea:62:21:57:22:
                    7b:32:41:b9:f0:53:8b:45:77:b6:cc:e6:c0:b5:ac:
                    cf:2d:90:96:25:a6:b8:af:30:cc:e7:b5:b1:9f:0c:
                    39:e6:e9:78:c9:ea:4d:42:21:04:51:98:6f:f0:29:
                    59:34:2a:01:aa:63:fc:67:06:62:eb:7c:c2:5e:58:
                    17:7a:e1:a6:2b:c4:ce:3a:55:ca:d0:de:26:ba:5d:
                    15:00:a0:4c:b0:7a:00:22:aa:15:70:2d:6a:c7:01:
                    a7:09
                Exponent: 65537 (0x10001)
        X509v3 extensions:
            X509v3 Subject Key Identifier: 
                18:E4:07:B2:F8:76:83:FF:F3:05:B6:72:63:0A:1D:1D:B2:79:53:B5
            X509v3 Authority Key Identifier: 
                keyid:E8:0E:D6:77:13:DB:3E:68:89:67:85:DA:4B:72:9A:67:FF:FE:D5:83
                DirName:/C=BE/ST=Vlaams-Brabant/L=Leuven/O=AUSY/O=not used/OU=Demo CA project/CN=RootCA
                serial:E2:E4:8B:E0:DB:AE:C0:84

            X509v3 Basic Constraints: 
                CA:TRUE
    Signature Algorithm: md5WithRSAEncryption
        62:cb:77:27:ad:0a:5c:48:03:7c:aa:e5:3c:68:3c:9e:5f:6a:
        06:ac:e7:cb:80:d3:19:66:67:1f:69:78:af:cf:a5:5e:85:94:
        e7:d9:0a:35:44:07:5b:fd:10:dc:92:62:e4:13:3a:91:1f:56:
        c8:ab:21:24:31:f2:ab:75:c1:b5:aa:82:8a:b6:cc:f4:97:cd:
        b7:8a:58:50:d8:f6:ab:67:91:f8:05:6d:5e:9a:aa:50:1e:da:
        7f:62:f6:c9:26:52:dc:64:fb:ce:c9:24:5d:36:4d:0c:0d:37:
        8b:11:a5:b4:d7:84:3c:67:b4:cc:08:7f:6a:2d:d1:31:0c:da:
        af:b0:bd:b4:af:3f:f4:74:7a:3b:72:9b:b1:86:ee:a1:ea:05:
        4d:aa:dc:60:89:29:99:25:2d:bf:96:07:8f:f8:3a:da:13:1d:
        25:fe:98:53:5d:dc:74:13:c5:8b:ea:65:9c:ab:74:b1:81:2f:
        23:dd:cf:b6:7a:38:18:7f:52:18:cb:4f:f7:ff:64:cd:60:c9:
        0d:34:4d:0a:91:2d:d3:1c:92:12:99:c9:c9:6e:89:73:1b:d2:
        a7:b7:ff:0a:a4:b4:d3:49:1d:8a:6e:b8:bb:5b:cf:ef:98:26:
        35:b2:d1:c2:93:f9:f4:6f:96:25:4a:64:89:d0:eb:d2:37:a3:
        9a:e5:da:71
-----BEGIN CERTIFICATE-----
MIIEdjCCA16gAwIBAgIBAjANBgkqhkiG9w0BAQQFADCBhDELMAkGA1UEBhMCQkUx
FzAVBgNVBAgTDlZsYWFtcy1CcmFiYW50MQ8wDQYDVQQHEwZMZXV2ZW4xDTALBgNV
BAoTBEFVU1kxETAPBgNVBAoTCG5vdCB1c2VkMRgwFgYDVQQLEw9EZW1vIENBIHBy
b2plY3QxDzANBgNVBAMTBlJvb3RDQTAeFw0xNDAyMjcxMzEwNTJaFw0yNDAyMjUx
MzEwNTJaMIGIMQswCQYDVQQGEwJCRTEXMBUGA1UECBMOVmxhYW1zLUJyYWJhbnQx
DzANBgNVBAcTBkxldXZlbjENMAsGA1UEChMEQVVTWTERMA8GA1UEChMIbm90IHVz
ZWQxGDAWBgNVBAsTD0RlbW8gQ0EgcHJvamVjdDETMBEGA1UEAxMKUHJvamVjdDJD
QTCCASIwDQYJKoZIhvcNAQEBBQADggEPADCCAQoCggEBALFATZolb1ccIiJJsWbA
NwsJCUrAtax/DnMyYyqcBEaNtLI5Z/v2iBpVpOZDYCoME13E1ef8zI2VxW6oMJMw
C+X6OPWF+xwyjQDxL1cGtFJzBkCJiG9HMTgJBqaD8lvoaZTL4eot5JrE0gWluv8i
Os0P2oNOLK8jFazLY1J9+qu1dDsikqQUy3EeqTjeMpbW8n2dRq1gVH1PW7NxQysb
g+piIVciezJBufBTi0V3tszmwLWszy2QliWmuK8wzOe1sZ8MOebpeMnqTUIhBFGY
b/ApWTQqAapj/GcGYut8wl5YF3rhpivEzjpVytDeJrpdFQCgTLB6ACKqFXAtascB
pwkCAwEAAaOB7DCB6TAdBgNVHQ4EFgQUGOQHsvh2g//zBbZyYwodHbJ5U7UwgbkG
A1UdIwSBsTCBroAU6A7WdxPbPmiJZ4XaS3KaZ//+1YOhgYqkgYcwgYQxCzAJBgNV
BAYTAkJFMRcwFQYDVQQIEw5WbGFhbXMtQnJhYmFudDEPMA0GA1UEBxMGTGV1dmVu
MQ0wCwYDVQQKEwRBVVNZMREwDwYDVQQKEwhub3QgdXNlZDEYMBYGA1UECxMPRGVt
byBDQSBwcm9qZWN0MQ8wDQYDVQQDEwZSb290Q0GCCQDi5Ivg267AhDAMBgNVHRME
BTADAQH/MA0GCSqGSIb3DQEBBAUAA4IBAQBiy3cnrQpcSAN8quU8aDyeX2oGrOfL
gNMZZmcfaXivz6VehZTn2Qo1RAdb/RDckmLkEzqRH1bIqyEkMfKrdcG1qoKKtsz0
l823ilhQ2ParZ5H4BW1emqpQHtp/YvbJJlLcZPvOySRdNk0MDTeLEaW014Q8Z7TM
CH9qLdExDNqvsL20rz/0dHo7cpuxhu6h6gVNqtxgiSmZJS2/lgeP+DraEx0l/phT
Xdx0E8WL6mWcq3SxgS8j3c+2ejgYf1IYy0/3/2TNYMkNNE0KkS3THJISmcnJbolz
G9Knt/8KpLTTSR2Kbri7W8/vmCY1stHCk/n0b5YlSmSJ0OvSN6Oa5dpx
-----END CERTIFICATE-----
