Certificate:
    Data:
        Version: 3 (0x2)
        Serial Number: 2 (0x2)
        Signature Algorithm: md5WithRSAEncryption
        Issuer: C=BE, ST=Vlaams-Brabant, L=Leuven, O=AUSY, O=not used, OU=Demo CA project, CN=Project2CA
        Validity
            Not Before: May  2 15:43:28 2014 GMT
            Not After : May  2 15:43:28 2015 GMT
        Subject: C=BE, ST=Vlaams-Brabant, L=Leuven, O=AUSY, OU=Demo CA project, CN=test_common_name
        Subject Public Key Info:
            Public Key Algorithm: rsaEncryption
            RSA Public Key: (2048 bit)
                Modulus (2048 bit):
                    00:b3:52:00:e9:00:d8:30:c4:01:b7:9d:48:4e:ff:
                    41:90:97:65:9d:75:51:0b:c4:b7:17:ef:52:35:44:
                    16:e8:4a:70:e7:02:4e:0b:c3:7b:aa:30:4a:8f:b0:
                    cb:74:a3:98:cf:9a:1c:68:3e:19:69:d8:0e:21:0d:
                    23:a3:55:01:ba:2c:cf:4f:e7:d8:a8:63:af:0e:ac:
                    ec:10:b7:2c:a8:a0:17:f8:76:78:ab:de:94:d1:75:
                    13:fa:c8:71:fd:72:ba:d9:c1:c0:fd:35:09:21:df:
                    11:c8:f6:1e:95:68:7d:ab:be:52:89:f7:73:31:f8:
                    15:11:8b:75:0b:84:3f:7d:a6:6e:26:72:b7:c1:3d:
                    2e:40:cd:8b:f9:14:32:26:b0:31:c5:97:17:77:98:
                    86:84:7d:d8:fa:90:a8:78:a2:9a:6e:17:9b:db:8f:
                    f7:d4:43:b4:97:be:85:11:54:a1:67:07:ca:20:e6:
                    57:3a:12:4c:56:e6:bf:68:bd:74:60:c0:ed:b0:81:
                    72:84:f1:a8:b5:79:55:f8:8e:4a:16:af:41:7e:3e:
                    77:6a:54:71:69:30:15:40:19:fe:52:89:fe:4e:30:
                    9c:6c:4d:6f:78:4d:e4:cc:7a:ab:5b:56:8f:e5:99:
                    b3:7b:bd:63:ef:99:80:e3:54:22:48:79:8e:9f:9e:
                    95:21
                Exponent: 65537 (0x10001)
        X509v3 extensions:
            X509v3 Basic Constraints: 
                CA:FALSE
            Netscape Cert Type: 
                SSL Server
            X509v3 CRL Distribution Points: 
                URI:http://example.com/crl.pem

            Netscape Comment: 
                OpenSSL Generated Server Certificate
    Signature Algorithm: md5WithRSAEncryption
        9f:f9:ef:2d:7b:2a:e1:09:96:ca:c6:8f:75:8c:7a:77:81:76:
        50:a6:0b:6c:fb:2c:a7:f2:74:2b:39:79:77:e7:e4:80:85:81:
        98:ac:d2:9d:e8:f5:7f:8b:a1:84:fa:39:52:ff:96:92:1f:19:
        fc:05:db:fe:a3:06:e1:dc:67:d6:36:78:e7:45:f4:a6:70:50:
        af:6c:5a:54:94:17:fb:41:2f:3b:06:81:3d:1b:81:20:10:74:
        df:9c:9a:8b:1a:72:da:90:fc:59:bc:e4:db:bb:1b:65:6d:e6:
        e7:a1:99:8c:1f:8d:95:98:9f:d1:b9:0d:43:68:95:aa:57:a4:
        f5:21:f1:0f:0b:37:62:c7:71:76:df:83:0c:4f:ee:d3:fe:1b:
        74:b8:63:c7:5a:58:b6:5a:d4:8d:b7:df:57:b8:7a:12:e7:b1:
        01:a2:01:3e:c1:4c:6f:70:ad:26:55:a0:07:fe:40:a8:81:a0:
        94:d3:fe:49:92:48:51:3f:64:20:c3:12:97:87:07:40:29:3c:
        8d:6f:14:df:eb:2d:ab:4e:88:12:92:45:a7:83:88:0e:25:b2:
        38:86:db:b4:32:d4:dc:6a:92:c7:dd:6f:ef:e0:9d:e0:50:fb:
        88:74:37:1e:fe:0c:d5:8b:8a:75:04:e9:74:81:88:37:35:d4:
        87:6d:01:16
-----BEGIN CERTIFICATE-----
MIIEAzCCAuugAwIBAgIBAjANBgkqhkiG9w0BAQQFADCBiDELMAkGA1UEBhMCQkUx
FzAVBgNVBAgTDlZsYWFtcy1CcmFiYW50MQ8wDQYDVQQHEwZMZXV2ZW4xDTALBgNV
BAoTBEFVU1kxETAPBgNVBAoTCG5vdCB1c2VkMRgwFgYDVQQLEw9EZW1vIENBIHBy
b2plY3QxEzARBgNVBAMTClByb2plY3QyQ0EwHhcNMTQwNTAyMTU0MzI4WhcNMTUw
NTAyMTU0MzI4WjB7MQswCQYDVQQGEwJCRTEXMBUGA1UECBMOVmxhYW1zLUJyYWJh
bnQxDzANBgNVBAcTBkxldXZlbjENMAsGA1UEChMEQVVTWTEYMBYGA1UECxMPRGVt
byBDQSBwcm9qZWN0MRkwFwYDVQQDFBB0ZXN0X2NvbW1vbl9uYW1lMIIBIjANBgkq
hkiG9w0BAQEFAAOCAQ8AMIIBCgKCAQEAs1IA6QDYMMQBt51ITv9BkJdlnXVRC8S3
F+9SNUQW6Epw5wJOC8N7qjBKj7DLdKOYz5ocaD4ZadgOIQ0jo1UBuizPT+fYqGOv
DqzsELcsqKAX+HZ4q96U0XUT+shx/XK62cHA/TUJId8RyPYelWh9q75SifdzMfgV
EYt1C4Q/faZuJnK3wT0uQM2L+RQyJrAxxZcXd5iGhH3Y+pCoeKKabheb24/31EO0
l76FEVShZwfKIOZXOhJMVua/aL10YMDtsIFyhPGotXlV+I5KFq9Bfj53alRxaTAV
QBn+Uon+TjCcbE1veE3kzHqrW1aP5Zmze71j75mA41QiSHmOn56VIQIDAQABo4GD
MIGAMAkGA1UdEwQCMAAwEQYJYIZIAYb4QgEBBAQDAgZAMCsGA1UdHwQkMCIwIKAe
oByGGmh0dHA6Ly9leGFtcGxlLmNvbS9jcmwucGVtMDMGCWCGSAGG+EIBDQQmFiRP
cGVuU1NMIEdlbmVyYXRlZCBTZXJ2ZXIgQ2VydGlmaWNhdGUwDQYJKoZIhvcNAQEE
BQADggEBAJ/57y17KuEJlsrGj3WMeneBdlCmC2z7LKfydCs5eXfn5ICFgZis0p3o
9X+LoYT6OVL/lpIfGfwF2/6jBuHcZ9Y2eOdF9KZwUK9sWlSUF/tBLzsGgT0bgSAQ
dN+cmosactqQ/Fm85Nu7G2Vt5uehmYwfjZWYn9G5DUNolapXpPUh8Q8LN2LHcXbf
gwxP7tP+G3S4Y8daWLZa1I2331e4ehLnsQGiAT7BTG9wrSZVoAf+QKiBoJTT/kmS
SFE/ZCDDEpeHB0ApPI1vFN/rLatOiBKSRaeDiA4lsjiG27Qy1Nxqksfdb+/gneBQ
+4h0Nx7+DNWLinUE6XSBiDc11IdtARY=
-----END CERTIFICATE-----
