Certificate:
    Data:
        Version: 3 (0x2)
        Serial Number: 3 (0x3)
        Signature Algorithm: md5WithRSAEncryption
        Issuer: C=BE, ST=Vlaams-Brabant, L=Leuven, O=AUSY, O=not used, OU=Demo CA project, CN=Project1CA
        Validity
            Not Before: Feb 27 15:39:45 2014 GMT
            Not After : Feb 27 15:39:45 2015 GMT
        Subject: C=BE, ST=Vlaams-Brabant, L=Leuven, O=AUSY, OU=Demo, CN=demo.server@ausy.be
        Subject Public Key Info:
            Public Key Algorithm: rsaEncryption
            RSA Public Key: (2048 bit)
                Modulus (2048 bit):
                    00:b3:0c:2e:7f:80:a0:6c:e0:f8:9f:25:cd:45:57:
                    5a:53:67:54:86:25:38:d2:7a:73:d7:bf:2f:a4:1d:
                    4f:6d:81:4e:99:0c:b6:2e:50:82:a0:a2:1a:97:e2:
                    51:cc:80:a7:9a:89:ad:86:c0:75:ec:de:a0:cc:0a:
                    b8:c4:0f:bb:93:75:af:4f:e7:09:e3:05:e9:8e:12:
                    41:67:54:87:b8:f6:bc:bb:f0:48:d1:5f:40:f7:d5:
                    8f:14:4b:c0:77:68:2a:a7:07:72:c6:a5:5a:99:5b:
                    38:e1:4d:cb:f4:1f:96:35:0c:5c:3f:cf:f8:2d:8c:
                    76:a1:b2:52:9f:05:78:dc:11:30:80:14:c4:c8:f0:
                    50:c1:60:5d:d3:4c:b6:db:9e:db:f1:4c:60:db:91:
                    1d:e9:73:b4:61:85:96:62:db:1b:67:d4:e2:64:94:
                    4a:e9:92:6b:5b:34:c2:93:19:3e:30:2b:44:54:a5:
                    59:21:30:54:8a:e8:95:5c:cb:64:4f:a0:4f:21:20:
                    48:63:5f:72:ce:1c:84:5d:a2:ab:5c:8c:60:55:6a:
                    00:2c:a2:9a:08:09:e0:0e:ca:f0:9a:b6:d1:95:95:
                    fd:08:a0:f9:d4:fd:9f:fd:5f:25:b6:e8:72:eb:30:
                    39:77:ed:5a:bf:a4:4c:90:9c:fb:bd:c4:2a:bf:13:
                    7a:f7
                Exponent: 65537 (0x10001)
        X509v3 extensions:
            X509v3 Basic Constraints: 
                CA:FALSE
            Netscape Cert Type: 
                SSL Server
            X509v3 CRL Distribution Points: 
                URI:http://example.com/crl.pem

            Netscape Comment: 
                OpenSSL Generated Server Certificate
    Signature Algorithm: md5WithRSAEncryption
        68:92:40:28:43:69:73:b1:09:2f:cd:4d:e7:c2:82:fe:2a:f3:
        20:f6:75:53:a6:91:15:dc:e1:a2:98:c1:e3:6d:65:ab:ad:b5:
        49:1e:e8:a4:6b:3b:ab:30:9b:8b:f9:16:41:85:02:d8:87:dd:
        1d:26:77:89:67:e4:d0:a7:43:5f:4b:74:8d:79:3b:9a:4a:32:
        4b:fb:03:67:6c:5a:c0:c6:14:4e:1a:ee:bf:9c:ce:b5:39:50:
        a8:65:6d:de:b6:bf:15:ce:90:16:5c:cf:c7:d3:47:c4:7c:2e:
        3d:e4:8a:d1:7f:c0:e5:df:56:2c:e3:7e:ae:93:14:92:1d:26:
        a0:b5:6d:ee:3c:6f:8b:52:4e:01:e9:4e:89:82:20:21:d4:0c:
        f4:e2:17:c6:68:97:82:3a:9c:4e:3d:07:04:0b:4c:cc:fd:3f:
        e3:66:36:6e:eb:d6:15:ca:07:77:bd:bb:a4:f5:ec:87:98:39:
        7f:7c:58:68:86:4d:36:50:13:15:ea:85:2f:51:ac:75:85:6b:
        ad:2d:0b:fa:ac:2d:4d:d3:39:d9:cc:af:07:a2:f9:25:36:d3:
        0e:e3:12:ef:c9:bb:8d:97:79:0e:0b:24:da:06:16:f2:2b:b9:
        d6:19:fe:d6:a5:03:dc:d3:6a:c6:8b:d4:21:be:8f:d6:e5:a9:
        d6:6c:53:d8
-----BEGIN CERTIFICATE-----
MIID+zCCAuOgAwIBAgIBAzANBgkqhkiG9w0BAQQFADCBiDELMAkGA1UEBhMCQkUx
FzAVBgNVBAgTDlZsYWFtcy1CcmFiYW50MQ8wDQYDVQQHEwZMZXV2ZW4xDTALBgNV
BAoTBEFVU1kxETAPBgNVBAoTCG5vdCB1c2VkMRgwFgYDVQQLEw9EZW1vIENBIHBy
b2plY3QxEzARBgNVBAMTClByb2plY3QxQ0EwHhcNMTQwMjI3MTUzOTQ1WhcNMTUw
MjI3MTUzOTQ1WjBzMQswCQYDVQQGEwJCRTEXMBUGA1UECBMOVmxhYW1zLUJyYWJh
bnQxDzANBgNVBAcTBkxldXZlbjENMAsGA1UEChMEQVVTWTENMAsGA1UECxMERGVt
bzEcMBoGA1UEAxQTZGVtby5zZXJ2ZXJAYXVzeS5iZTCCASIwDQYJKoZIhvcNAQEB
BQADggEPADCCAQoCggEBALMMLn+AoGzg+J8lzUVXWlNnVIYlONJ6c9e/L6QdT22B
TpkMti5QgqCiGpfiUcyAp5qJrYbAdezeoMwKuMQPu5N1r0/nCeMF6Y4SQWdUh7j2
vLvwSNFfQPfVjxRLwHdoKqcHcsalWplbOOFNy/QfljUMXD/P+C2MdqGyUp8FeNwR
MIAUxMjwUMFgXdNMttue2/FMYNuRHelztGGFlmLbG2fU4mSUSumSa1s0wpMZPjAr
RFSlWSEwVIrolVzLZE+gTyEgSGNfcs4chF2iq1yMYFVqACyimggJ4A7K8Jq20ZWV
/Qig+dT9n/1fJbbocuswOXftWr+kTJCc+73EKr8TevcCAwEAAaOBgzCBgDAJBgNV
HRMEAjAAMBEGCWCGSAGG+EIBAQQEAwIGQDArBgNVHR8EJDAiMCCgHqAchhpodHRw
Oi8vZXhhbXBsZS5jb20vY3JsLnBlbTAzBglghkgBhvhCAQ0EJhYkT3BlblNTTCBH
ZW5lcmF0ZWQgU2VydmVyIENlcnRpZmljYXRlMA0GCSqGSIb3DQEBBAUAA4IBAQBo
kkAoQ2lzsQkvzU3nwoL+KvMg9nVTppEV3OGimMHjbWWrrbVJHuikazurMJuL+RZB
hQLYh90dJneJZ+TQp0NfS3SNeTuaSjJL+wNnbFrAxhROGu6/nM61OVCoZW3etr8V
zpAWXM/H00fEfC495IrRf8Dl31Ys436ukxSSHSagtW3uPG+LUk4B6U6JgiAh1Az0
4hfGaJeCOpxOPQcEC0zM/T/jZjZu69YVygd3vbuk9eyHmDl/fFhohk02UBMV6oUv
Uax1hWutLQv6rC1N0znZzK8HovklNtMO4xLvybuNl3kOCyTaBhbyK7nWGf7WpQPc
02rGi9Qhvo/W5anWbFPY
-----END CERTIFICATE-----
