Certificate:
    Data:
        Version: 3 (0x2)
        Serial Number: 11 (0xb)
        Signature Algorithm: md5WithRSAEncryption
        Issuer: C=BE, ST=Vlaams-Brabant, L=Leuven, O=AUSY, O=not used, OU=Demo CA project, CN=Project1CA
        Validity
            Not Before: May  2 12:08:22 2014 GMT
            Not After : May  2 12:08:22 2015 GMT
        Subject: C=BE, ST=Brussels, L=Brussels, O=OLAF, OU=D.4 AFIS, CN=testing3/emailAddress=user@organisation.com
        Subject Public Key Info:
            Public Key Algorithm: rsaEncryption
            RSA Public Key: (2048 bit)
                Modulus (2048 bit):
                    00:d0:2e:bc:06:6a:38:a7:ba:01:8e:25:50:67:bd:
                    04:e9:5e:48:e5:67:f5:c4:b1:54:05:96:cb:f7:78:
                    e2:4d:95:b1:d7:22:5b:b8:ea:0c:36:a9:c2:11:bc:
                    19:77:db:d9:74:7b:af:7b:b8:14:7d:a5:a4:81:f4:
                    ed:77:d0:d7:6d:66:61:f8:37:c5:f8:98:59:18:86:
                    1d:12:a2:55:78:a6:14:e6:01:df:2b:4d:90:02:28:
                    03:00:5f:d2:0a:31:68:20:1a:d0:92:94:02:10:c1:
                    1c:07:e0:b2:32:ca:04:de:2a:95:a9:0d:ca:86:de:
                    e2:9a:19:89:2d:da:a1:2a:11:06:f8:45:61:41:11:
                    53:9b:9e:b9:0a:b5:72:66:46:c2:d7:40:e1:95:a6:
                    23:99:67:da:c0:3d:99:01:a2:58:89:cf:86:38:13:
                    eb:35:74:a3:cf:05:a9:3c:65:78:a6:c0:5e:80:66:
                    8a:75:50:91:dd:79:b6:2c:97:84:72:c2:f3:49:e5:
                    59:0c:ed:82:9b:f1:4c:96:cf:cc:8f:aa:6c:12:33:
                    bd:08:6f:73:ce:78:93:3a:e2:1e:bd:83:db:8e:26:
                    be:0d:68:ec:9f:f9:fd:a2:e1:fc:13:af:24:f6:9e:
                    9b:20:1d:57:a3:f6:79:8c:7b:cb:76:03:17:37:43:
                    bc:71
                Exponent: 65537 (0x10001)
        X509v3 extensions:
            X509v3 Basic Constraints: 
                CA:FALSE
            Netscape Cert Type: 
                SSL Client, S/MIME
            Netscape Comment: 
                OpenSSL Generated Client Certificate
            X509v3 Subject Key Identifier: 
                92:85:37:D6:E9:CD:CF:91:8B:86:7E:22:1D:5D:0A:A2:B6:37:BC:13
            X509v3 Authority Key Identifier: 
                keyid:CE:9B:8C:9B:C8:59:66:42:49:1A:B4:F8:35:1B:9D:7F:D4:BC:90:75
                DirName:/C=BE/ST=Vlaams-Brabant/L=Leuven/O=AUSY/O=not used/OU=Demo CA project/CN=RootCA
                serial:01

    Signature Algorithm: md5WithRSAEncryption
        1b:25:ff:f9:4d:be:3c:21:42:39:ad:12:70:ab:f2:45:d3:d1:
        86:02:88:25:ea:de:22:8b:0c:75:17:8e:ad:b2:69:82:f9:81:
        6b:3c:21:f5:18:09:c2:d8:ee:ea:b9:49:0e:36:86:cc:c1:64:
        10:e8:30:b5:fe:1d:9a:8a:f5:0e:23:cb:78:3e:9c:d8:71:a9:
        63:fb:d7:28:31:82:d3:a5:dd:c5:60:e7:59:e8:34:3d:70:73:
        79:69:65:50:fb:14:f6:b3:14:6f:6e:cb:39:6f:23:0b:15:bc:
        10:87:04:47:31:55:2a:c9:30:dd:97:da:8b:b4:a4:ce:dd:b6:
        ff:2d:88:51:6f:4c:f6:75:cd:48:c6:fd:fc:7a:51:dc:78:47:
        25:0d:56:76:0d:92:a9:b2:e0:ed:10:70:3c:9a:8e:da:5d:a4:
        6a:a1:2e:36:2e:bf:57:60:a6:16:a6:62:a8:ae:e5:cf:1b:3d:
        09:80:ea:bf:7c:c5:15:4c:89:5a:6d:a0:7c:25:98:9c:5f:09:
        cc:0f:49:a7:fd:d7:2d:8a:9c:3f:2b:e5:cf:6c:d3:55:3a:49:
        37:96:a6:aa:10:20:99:3e:c6:7b:ab:3c:9a:8d:ed:f3:a8:7a:
        3f:c4:0e:98:ea:e6:9b:1d:77:4f:20:92:bf:e2:b7:0f:4d:dc:
        dd:8b:67:1b
-----BEGIN CERTIFICATE-----
MIIEvzCCA6egAwIBAgIBCzANBgkqhkiG9w0BAQQFADCBiDELMAkGA1UEBhMCQkUx
FzAVBgNVBAgTDlZsYWFtcy1CcmFiYW50MQ8wDQYDVQQHEwZMZXV2ZW4xDTALBgNV
BAoTBEFVU1kxETAPBgNVBAoTCG5vdCB1c2VkMRgwFgYDVQQLEw9EZW1vIENBIHBy
b2plY3QxEzARBgNVBAMTClByb2plY3QxQ0EwHhcNMTQwNTAyMTIwODIyWhcNMTUw
NTAyMTIwODIyWjCBjjELMAkGA1UEBhMCQkUxETAPBgNVBAgTCEJydXNzZWxzMREw
DwYDVQQHEwhCcnVzc2VsczENMAsGA1UEChMET0xBRjERMA8GA1UECxMIRC40IEFG
SVMxETAPBgNVBAMTCHRlc3RpbmczMSQwIgYJKoZIhvcNAQkBFhV1c2VyQG9yZ2Fu
aXNhdGlvbi5jb20wggEiMA0GCSqGSIb3DQEBAQUAA4IBDwAwggEKAoIBAQDQLrwG
ajinugGOJVBnvQTpXkjlZ/XEsVQFlsv3eOJNlbHXIlu46gw2qcIRvBl329l0e697
uBR9paSB9O130NdtZmH4N8X4mFkYhh0SolV4phTmAd8rTZACKAMAX9IKMWggGtCS
lAIQwRwH4LIyygTeKpWpDcqG3uKaGYkt2qEqEQb4RWFBEVObnrkKtXJmRsLXQOGV
piOZZ9rAPZkBoliJz4Y4E+s1dKPPBak8ZXimwF6AZop1UJHdebYsl4RywvNJ5VkM
7YKb8UyWz8yPqmwSM70Ib3POeJM64h69g9uOJr4NaOyf+f2i4fwTryT2npsgHVej
9nmMe8t2Axc3Q7xxAgMBAAGjggEqMIIBJjAJBgNVHRMEAjAAMBEGCWCGSAGG+EIB
AQQEAwIFoDAzBglghkgBhvhCAQ0EJhYkT3BlblNTTCBHZW5lcmF0ZWQgQ2xpZW50
IENlcnRpZmljYXRlMB0GA1UdDgQWBBSShTfW6c3PkYuGfiIdXQqitje8EzCBsQYD
VR0jBIGpMIGmgBTOm4ybyFlmQkkatPg1G51/1LyQdaGBiqSBhzCBhDELMAkGA1UE
BhMCQkUxFzAVBgNVBAgTDlZsYWFtcy1CcmFiYW50MQ8wDQYDVQQHEwZMZXV2ZW4x
DTALBgNVBAoTBEFVU1kxETAPBgNVBAoTCG5vdCB1c2VkMRgwFgYDVQQLEw9EZW1v
IENBIHByb2plY3QxDzANBgNVBAMTBlJvb3RDQYIBATANBgkqhkiG9w0BAQQFAAOC
AQEAGyX/+U2+PCFCOa0ScKvyRdPRhgKIJereIosMdReOrbJpgvmBazwh9RgJwtju
6rlJDjaGzMFkEOgwtf4dmor1DiPLeD6c2HGpY/vXKDGC06XdxWDnWeg0PXBzeWll
UPsU9rMUb27LOW8jCxW8EIcERzFVKskw3Zfai7Skzt22/y2IUW9M9nXNSMb9/HpR
3HhHJQ1Wdg2SqbLg7RBwPJqO2l2kaqEuNi6/V2CmFqZiqK7lzxs9CYDqv3zFFUyJ
Wm2gfCWYnF8JzA9Jp/3XLYqcPyvlz2zTVTpJN5amqhAgmT7Ge6s8mo3t86h6P8QO
mOrmmx13TyCSv+K3D03c3YtnGw==
-----END CERTIFICATE-----
