Certificate:
    Data:
        Version: 3 (0x2)
        Serial Number: 18 (0x12)
        Signature Algorithm: md5WithRSAEncryption
        Issuer: C=BE, ST=Vlaams-Brabant, L=Leuven, O=AUSY, O=not used, OU=Demo CA project, CN=Project1CA
        Validity
            Not Before: May  2 12:57:25 2014 GMT
            Not After : May  2 12:57:25 2015 GMT
        Subject: C=BE, ST=Brussels, L=Brussels, O=OLAF, OU=D.4 AFIS, CN=Testing17/emailAddress=user@organisation.com
        Subject Public Key Info:
            Public Key Algorithm: rsaEncryption
            RSA Public Key: (2048 bit)
                Modulus (2048 bit):
                    00:9b:04:a0:0c:56:4b:92:62:8f:ff:a6:90:0b:91:
                    da:ea:c7:ed:2e:17:a4:10:84:3f:70:a1:e0:af:14:
                    76:15:f4:b8:14:9c:f0:8b:75:1e:70:d4:38:67:73:
                    b4:4b:b2:fd:d2:16:58:a3:94:43:3f:3d:2d:74:5b:
                    67:47:02:ca:6d:7f:b6:1f:b7:b6:05:d7:ca:7a:cf:
                    91:44:48:a2:f1:bc:83:66:44:49:8c:23:78:8f:96:
                    fe:e9:34:a8:34:7d:86:2e:72:61:b2:42:97:92:83:
                    09:62:b0:2d:ce:92:ad:72:4d:75:5b:0d:fb:32:7c:
                    68:a6:1a:08:a2:e3:bf:f9:c0:b6:44:51:db:44:e1:
                    7c:ed:23:26:22:76:18:5e:b9:a1:e6:cc:ac:2e:c4:
                    ce:fb:ad:de:c3:d2:b1:a1:81:6c:26:cf:ee:b5:56:
                    bb:0f:ad:97:a0:c0:16:c0:39:0d:f7:3e:37:48:82:
                    13:32:ab:61:4b:7f:2d:63:ba:aa:ba:10:b8:3a:94:
                    3c:f7:a5:06:42:f1:a4:fc:09:47:a5:87:bf:41:ff:
                    9a:6d:29:b7:a7:74:6d:38:3d:94:5d:ec:ca:ba:0b:
                    db:a4:c5:c2:0b:e3:a9:4b:b7:6c:0c:b7:0d:52:92:
                    f1:8d:b3:c2:a6:20:1f:64:08:11:c9:34:47:a5:9a:
                    38:ed
                Exponent: 65537 (0x10001)
        X509v3 extensions:
            X509v3 Basic Constraints: 
                CA:FALSE
            Netscape Cert Type: 
                SSL Client, S/MIME
            Netscape Comment: 
                OpenSSL Generated Client Certificate
            X509v3 Subject Key Identifier: 
                77:73:C2:51:98:B1:AE:A7:10:2A:33:1B:5C:E2:8A:8C:AE:02:0F:45
            X509v3 Authority Key Identifier: 
                keyid:CE:9B:8C:9B:C8:59:66:42:49:1A:B4:F8:35:1B:9D:7F:D4:BC:90:75
                DirName:/C=BE/ST=Vlaams-Brabant/L=Leuven/O=AUSY/O=not used/OU=Demo CA project/CN=RootCA
                serial:01

    Signature Algorithm: md5WithRSAEncryption
        2a:69:b5:37:b9:66:ec:65:2f:67:6a:f2:3e:e2:d7:ef:eb:3d:
        5a:11:25:bf:3a:15:fb:e2:8a:56:76:ff:dd:2f:0d:3d:59:65:
        4d:fb:e9:dd:a1:89:7c:7c:d3:26:b4:66:1b:da:98:ac:dd:66:
        3f:24:3a:a0:4b:68:44:be:55:01:63:cc:80:9d:02:b3:3c:40:
        a2:07:01:aa:1f:df:12:e5:55:3f:bb:24:51:71:b7:cb:30:dc:
        f9:78:c7:ab:90:16:73:7f:a4:01:6c:4b:8b:0b:86:29:3b:fc:
        ed:27:74:33:8b:b6:90:67:21:ae:43:78:8b:74:ba:95:d4:60:
        9e:7c:b8:3a:6f:0f:a9:1b:b5:ad:bd:ad:70:55:0c:23:7f:94:
        30:cd:5c:1e:38:79:a3:c2:03:f8:6b:c1:18:5f:a0:52:3b:14:
        72:28:cd:9d:37:3f:f4:b1:19:2e:41:1f:af:7a:5a:97:01:74:
        42:65:43:d7:41:21:43:e6:5b:19:df:d5:f9:04:5a:19:b4:a2:
        1b:2a:83:a2:09:36:e7:e5:0e:39:da:30:04:11:f9:45:8d:48:
        68:d7:0b:72:04:ea:96:05:7b:5a:b9:ef:ba:4a:38:f2:19:cc:
        8b:7c:cc:68:e4:7d:37:fc:34:cd:98:b1:93:03:55:13:9b:45:
        e3:cf:f3:85
-----BEGIN CERTIFICATE-----
MIIEwDCCA6igAwIBAgIBEjANBgkqhkiG9w0BAQQFADCBiDELMAkGA1UEBhMCQkUx
FzAVBgNVBAgTDlZsYWFtcy1CcmFiYW50MQ8wDQYDVQQHEwZMZXV2ZW4xDTALBgNV
BAoTBEFVU1kxETAPBgNVBAoTCG5vdCB1c2VkMRgwFgYDVQQLEw9EZW1vIENBIHBy
b2plY3QxEzARBgNVBAMTClByb2plY3QxQ0EwHhcNMTQwNTAyMTI1NzI1WhcNMTUw
NTAyMTI1NzI1WjCBjzELMAkGA1UEBhMCQkUxETAPBgNVBAgTCEJydXNzZWxzMREw
DwYDVQQHEwhCcnVzc2VsczENMAsGA1UEChMET0xBRjERMA8GA1UECxMIRC40IEFG
SVMxEjAQBgNVBAMTCVRlc3RpbmcxNzEkMCIGCSqGSIb3DQEJARYVdXNlckBvcmdh
bmlzYXRpb24uY29tMIIBIjANBgkqhkiG9w0BAQEFAAOCAQ8AMIIBCgKCAQEAmwSg
DFZLkmKP/6aQC5Ha6sftLhekEIQ/cKHgrxR2FfS4FJzwi3UecNQ4Z3O0S7L90hZY
o5RDPz0tdFtnRwLKbX+2H7e2BdfKes+RREii8byDZkRJjCN4j5b+6TSoNH2GLnJh
skKXkoMJYrAtzpKtck11Ww37MnxophoIouO/+cC2RFHbROF87SMmInYYXrmh5sys
LsTO+63ew9KxoYFsJs/utVa7D62XoMAWwDkN9z43SIITMqthS38tY7qquhC4OpQ8
96UGQvGk/AlHpYe/Qf+abSm3p3RtOD2UXezKugvbpMXCC+OpS7dsDLcNUpLxjbPC
piAfZAgRyTRHpZo47QIDAQABo4IBKjCCASYwCQYDVR0TBAIwADARBglghkgBhvhC
AQEEBAMCBaAwMwYJYIZIAYb4QgENBCYWJE9wZW5TU0wgR2VuZXJhdGVkIENsaWVu
dCBDZXJ0aWZpY2F0ZTAdBgNVHQ4EFgQUd3PCUZixrqcQKjMbXOKKjK4CD0UwgbEG
A1UdIwSBqTCBpoAUzpuMm8hZZkJJGrT4NRudf9S8kHWhgYqkgYcwgYQxCzAJBgNV
BAYTAkJFMRcwFQYDVQQIEw5WbGFhbXMtQnJhYmFudDEPMA0GA1UEBxMGTGV1dmVu
MQ0wCwYDVQQKEwRBVVNZMREwDwYDVQQKEwhub3QgdXNlZDEYMBYGA1UECxMPRGVt
byBDQSBwcm9qZWN0MQ8wDQYDVQQDEwZSb290Q0GCAQEwDQYJKoZIhvcNAQEEBQAD
ggEBACpptTe5ZuxlL2dq8j7i1+/rPVoRJb86FfviilZ2/90vDT1ZZU376d2hiXx8
0ya0ZhvamKzdZj8kOqBLaES+VQFjzICdArM8QKIHAaof3xLlVT+7JFFxt8sw3Pl4
x6uQFnN/pAFsS4sLhik7/O0ndDOLtpBnIa5DeIt0upXUYJ58uDpvD6kbta29rXBV
DCN/lDDNXB44eaPCA/hrwRhfoFI7FHIozZ03P/SxGS5BH696WpcBdEJlQ9dBIUPm
Wxnf1fkEWhm0ohsqg6IJNuflDjnaMAQR+UWNSGjXC3IE6pYFe1q577pKOPIZzIt8
zGjkfTf8NM2YsZMDVRObRePP84U=
-----END CERTIFICATE-----
